libhipercontracer.so.1 libhipercontracer1 #MINVER#
* Build-Depends-Package: libhipercontracer-dev
 DSCPValuesTable@Base 1.4.10
 MySink@Base 1.4.10
 _Z12usSinceEpochRKNSt6chrono10time_pointINS_3_V212system_clockENS_8durationIlSt5ratioILl1ELl1000000000EEEEEE@Base 1.4.10
 _Z16addSourceAddressRSt3mapIN5boost4asio2ip7addressESt3setIhSt4lessIhESaIhEES5_IS3_ESaISt4pairIKS3_S8_EEERKNSt7__cxx1112basic_stringIcSt11char_traitsIcESaIcEEE@Base 1.4.10
 _Z16initialiseLoggerj@Base 1.4.10
 _Z16reducePrivilegesPK6passwd@Base 1.4.10
 _Z17computeInternet16IN9__gnu_cxx17__normal_iteratorIPhSt6vectorIhSaIhEEEEEvR10ICMPHeaderT_S9_@Base 1.4.10
 _Z21addDestinationAddressRSt3setIN5boost4asio2ip7addressESt4lessIS3_ESaIS3_EERKNSt7__cxx1112basic_stringIcSt11char_traitsIcESaIcEEE@Base 1.4.10
 _Z7getUserPKc@Base 1.4.10
 _ZGVN5boost4asio6detail10call_stackINS1_14strand_service11strand_implEhE4top_E@Base 1.4.10
 _ZGVN5boost4asio6detail10call_stackINS1_14thread_contextENS1_16thread_info_baseEE4top_E@Base 1.4.10
 _ZGVN5boost4asio6detail10call_stackINS1_23strand_executor_service11strand_implEhE4top_E@Base 1.4.10
 _ZGVN5boost4asio6detail12service_baseINS1_14strand_serviceEE2idE@Base 1.4.10
 _ZGVN5boost4asio6detail17posix_global_implINS0_14system_contextEE9instance_E@Base 1.4.10
 _ZGVN5boost4asio6detail30execution_context_service_baseINS1_13epoll_reactorEE2idE@Base 1.4.10
 _ZGVN5boost4asio6detail30execution_context_service_baseINS1_22deadline_timer_serviceINS0_11time_traitsINS_10posix_time5ptimeEEEEEE2idE@Base 1.4.10
 _ZGVN5boost4asio6detail30execution_context_service_baseINS1_23reactive_socket_serviceINS0_2ip4icmpEEEE2idE@Base 1.4.10
 _ZGVN5boost4asio6detail30execution_context_service_baseINS1_9schedulerEE2idE@Base 1.4.10
 _ZGVZN5boost3log11v2_mt_posix3aux14lazy_singletonINS1_7sources3aux16logger_singletonI8MyLoggerEENS_10shared_ptrINS5_13logger_holderINS4_18severity_logger_mtINS1_7trivial14severity_levelEEEEEEEE12get_instanceEvE8instance@Base 1.4.10
 _ZGVZN5boost3log11v2_mt_posix3aux24type_sequence_dispatcherINS_3mpl7vector2INSt7__cxx1112basic_stringIcSt11char_traitsIcESaIcEEENS7_IwS8_IwESaIwEEEEEE19get_dispatching_mapINS1_9binder1stINS1_10output_funERNS1_11expressions3aux10stream_refINS1_24basic_formatting_ostreamIcS9_SA_EEEEEEEERKNS_5arrayISt4pairINS_9typeindex14stl_type_indexEPvELm2EEEvE8instance@Base 1.4.10
 _ZGVZN5boost6system6detail15to_std_categoryERKNS0_14error_categoryEE15system_instance@Base 1.4.10
 _ZGVZN5boost6system6detail15to_std_categoryERKNS0_14error_categoryEE16generic_instance@Base 1.4.10
 _ZGVZN5boost6system6detail15to_std_categoryERKNS0_14error_categoryEE4map_@Base 1.4.10
 _ZN10Traceroute10prepareRunEb@Base 1.4.10
 _ZN10Traceroute11requestStopEv@Base 1.4.10
 _ZN10Traceroute12cancelSocketEv@Base 1.4.10
 _ZN10Traceroute12recordResultERKNSt6chrono10time_pointINS0_3_V212system_clockENS0_8durationIlSt5ratioILl1ELl1000000000EEEEEERK10ICMPHeadert@Base 1.4.10
 _ZN10Traceroute12sendRequestsEv@Base 1.4.10
 _ZN10Traceroute13handleMessageERKN5boost6system10error_codeEm@Base 1.4.10
 _ZN10Traceroute13prepareSocketEv@Base 1.4.10
 _ZN10Traceroute14addDestinationERK15DestinationInfo@Base 1.4.10
 _ZN10Traceroute14processResultsEv@Base 1.4.10
 _ZN10Traceroute15expectNextReplyEv@Base 1.4.10
 _ZN10Traceroute15sendICMPRequestERK15DestinationInfojjRj@Base 1.4.10
 _ZN10Traceroute18cancelTimeoutTimerEv@Base 1.4.10
 _ZN10Traceroute18handleTimeoutEventERKN5boost6system10error_codeE@Base 1.4.10
 _ZN10Traceroute19cancelIntervalTimerEv@Base 1.4.10
 _ZN10Traceroute19handleIntervalEventERKN5boost6system10error_codeE@Base 1.4.10
 _ZN10Traceroute19makePacketTimeStampERKNSt6chrono10time_pointINS0_3_V212system_clockENS0_8durationIlSt5ratioILl1ELl1000000000EEEEEE@Base 1.4.10
 _ZN10Traceroute20scheduleTimeoutEventEv@Base 1.4.10
 _ZN10Traceroute21scheduleIntervalEventEv@Base 1.4.10
 _ZN10Traceroute24compareTracerouteResultsEPK11ResultEntryS2_@Base 1.4.10
 _ZN10Traceroute24notReachedWithCurrentTTLEv@Base 1.4.10
 _ZN10Traceroute25noMoreOutstandingRequestsEv@Base 1.4.10
 _ZN10Traceroute3runEv@Base 1.4.10
 _ZN10Traceroute4joinEv@Base 1.4.10
 _ZN10Traceroute5startEv@Base 1.4.10
 _ZN10Traceroute8joinableEv@Base 1.4.10
 _ZN10Traceroute9getSourceEv@Base 1.4.10
 _ZN10TracerouteC1EP13ResultsWriterjbRKN5boost4asio2ip7addressERKSt3setI15DestinationInfoSt4lessIS9_ESaIS9_EEyjjjjj@Base 1.4.10
 _ZN10TracerouteC2EP13ResultsWriterjbRKN5boost4asio2ip7addressERKSt3setI15DestinationInfoSt4lessIS9_ESaIS9_EEyjjjjj@Base 1.4.10
 _ZN10TracerouteD0Ev@Base 1.4.10
 _ZN10TracerouteD1Ev@Base 1.4.10
 _ZN10TracerouteD2Ev@Base 1.4.10
 _ZN11ResultEntryC1EttjtNSt6chrono10time_pointINS0_3_V212system_clockENS0_8durationIlSt5ratioILl1ELl1000000000EEEEEERK15DestinationInfo9HopStatus@Base 1.4.10
 _ZN11ResultEntryC2EttjtNSt6chrono10time_pointINS0_3_V212system_clockENS0_8durationIlSt5ratioILl1ELl1000000000EEEEEERK15DestinationInfo9HopStatus@Base 1.4.10
 _ZN11ResultEntryD1Ev@Base 1.4.10
 _ZN11ResultEntryD2Ev@Base 1.4.10
 _ZN13ResultsWriter10changeFileEb@Base 1.4.10
 _ZN13ResultsWriter17makeResultsWriterERSt3setIPS_St4lessIS1_ESaIS1_EERKN5boost4asio2ip7addressERKNSt7__cxx1112basic_stringIcSt11char_traitsIcESaIcEEESK_jjj23ResultsWriterCompressor@Base 1.4.10
 _ZN13ResultsWriter22mayStartNewTransactionEv@Base 1.4.10
 _ZN13ResultsWriter6insertERKNSt7__cxx1112basic_stringIcSt11char_traitsIcESaIcEEE@Base 1.4.10
 _ZN13ResultsWriter7prepareEv@Base 1.4.10
 _ZN13ResultsWriterC1ERKNSt7__cxx1112basic_stringIcSt11char_traitsIcESaIcEEES7_S7_jjj23ResultsWriterCompressor@Base 1.4.10
 _ZN13ResultsWriterC2ERKNSt7__cxx1112basic_stringIcSt11char_traitsIcESaIcEEES7_S7_jjj23ResultsWriterCompressor@Base 1.4.10
 _ZN13ResultsWriterD0Ev@Base 1.4.10
 _ZN13ResultsWriterD1Ev@Base 1.4.10
 _ZN13ResultsWriterD2Ev@Base 1.4.10
 _ZN15DestinationInfoC1ERKN5boost4asio2ip7addressEhj@Base 1.4.10
 _ZN15DestinationInfoC1ERKS_@Base 1.4.10
 _ZN15DestinationInfoC1Ev@Base 1.4.10
 _ZN15DestinationInfoC2ERKN5boost4asio2ip7addressEhj@Base 1.4.10
 _ZN15DestinationInfoC2ERKS_@Base 1.4.10
 _ZN15DestinationInfoC2Ev@Base 1.4.10
 _ZN4Ping10prepareRunEb@Base 1.4.10
 _ZN4Ping12sendRequestsEv@Base 1.4.10
 _ZN4Ping14processResultsEv@Base 1.4.10
 _ZN4Ping18comparePingResultsEPK11ResultEntryS2_@Base 1.4.10
 _ZN4Ping20scheduleTimeoutEventEv@Base 1.4.10
 _ZN4Ping24notReachedWithCurrentTTLEv@Base 1.4.10
 _ZN4Ping25noMoreOutstandingRequestsEv@Base 1.4.10
 _ZN4PingC1EP13ResultsWriterjbRKN5boost4asio2ip7addressERKSt3setI15DestinationInfoSt4lessIS9_ESaIS9_EEyjj@Base 1.4.10
 _ZN4PingC2EP13ResultsWriterjbRKN5boost4asio2ip7addressERKSt3setI15DestinationInfoSt4lessIS9_ESaIS9_EEyjj@Base 1.4.10
 _ZN4PingD0Ev@Base 1.4.10
 _ZN4PingD1Ev@Base 1.4.10
 _ZN4PingD2Ev@Base 1.4.10
 _ZN5boost10posix_time18to_iso_string_typeIcEENSt7__cxx1112basic_stringIT_St11char_traitsIS4_ESaIS4_EEENS0_13time_durationE@Base 1.4.10
 _ZN5boost10posix_time18to_iso_string_typeIcEENSt7__cxx1112basic_stringIT_St11char_traitsIS4_ESaIS4_EEENS0_5ptimeE@Base 1.4.10
 _ZN5boost10shared_ptrINS_3log11v2_mt_posix5sinks16synchronous_sinkINS3_26basic_text_ostream_backendIcEEEEEC1IS7_EEPT_@Base 1.4.10
 _ZN5boost10shared_ptrINS_3log11v2_mt_posix5sinks16synchronous_sinkINS3_26basic_text_ostream_backendIcEEEEEC2IS7_EEPT_@Base 1.4.10
 _ZN5boost10shared_ptrINS_3log11v2_mt_posix5sinks16synchronous_sinkINS3_26basic_text_ostream_backendIcEEEEED1Ev@Base 1.4.10
 _ZN5boost10shared_ptrINS_3log11v2_mt_posix5sinks16synchronous_sinkINS3_26basic_text_ostream_backendIcEEEEED2Ev@Base 1.4.10
 _ZN5boost10shared_ptrINS_3log11v2_mt_posix7sources3aux13logger_holderINS3_18severity_logger_mtINS2_7trivial14severity_levelEEEEEED1Ev@Base 1.4.10
 _ZN5boost10shared_ptrINS_3log11v2_mt_posix7sources3aux13logger_holderINS3_18severity_logger_mtINS2_7trivial14severity_levelEEEEEED2Ev@Base 1.4.10
 _ZN5boost10wrapexceptINS_17bad_function_callEED0Ev@Base 1.4.10
 _ZN5boost10wrapexceptINS_17bad_function_callEED1Ev@Base 1.4.10
 _ZN5boost10wrapexceptINS_21thread_resource_errorEED0Ev@Base 1.4.10
 _ZN5boost10wrapexceptINS_21thread_resource_errorEED1Ev@Base 1.4.10
 _ZN5boost10wrapexceptINS_2io12too_few_argsEED0Ev@Base 1.4.10
 _ZN5boost10wrapexceptINS_2io12too_few_argsEED1Ev@Base 1.4.10
 _ZN5boost10wrapexceptINS_2io13too_many_argsEED0Ev@Base 1.4.10
 _ZN5boost10wrapexceptINS_2io13too_many_argsEED1Ev@Base 1.4.10
 _ZN5boost10wrapexceptINS_2io17bad_format_stringEED0Ev@Base 1.4.10
 _ZN5boost10wrapexceptINS_2io17bad_format_stringEED1Ev@Base 1.4.10
 _ZN5boost10wrapexceptINS_4asio12bad_executorEED0Ev@Base 1.4.10
 _ZN5boost10wrapexceptINS_4asio12bad_executorEED1Ev@Base 1.4.10
 _ZN5boost10wrapexceptINS_4asio21invalid_service_ownerEED0Ev@Base 1.4.10
 _ZN5boost10wrapexceptINS_4asio21invalid_service_ownerEED1Ev@Base 1.4.10
 _ZN5boost10wrapexceptINS_4asio22service_already_existsEED0Ev@Base 1.4.10
 _ZN5boost10wrapexceptINS_4asio22service_already_existsEED1Ev@Base 1.4.10
 _ZN5boost10wrapexceptINS_4asio2ip16bad_address_castEED0Ev@Base 1.4.10
 _ZN5boost10wrapexceptINS_4asio2ip16bad_address_castEED1Ev@Base 1.4.10
 _ZN5boost10wrapexceptINS_6system12system_errorEED0Ev@Base 1.4.10
 _ZN5boost10wrapexceptINS_6system12system_errorEED1Ev@Base 1.4.10
 _ZN5boost10wrapexceptINS_9gregorian16bad_day_of_monthEED0Ev@Base 1.4.10
 _ZN5boost10wrapexceptINS_9gregorian16bad_day_of_monthEED1Ev@Base 1.4.10
 _ZN5boost10wrapexceptINS_9gregorian8bad_yearEED0Ev@Base 1.4.10
 _ZN5boost10wrapexceptINS_9gregorian8bad_yearEED1Ev@Base 1.4.10
 _ZN5boost10wrapexceptINS_9gregorian9bad_monthEED0Ev@Base 1.4.10
 _ZN5boost10wrapexceptINS_9gregorian9bad_monthEED1Ev@Base 1.4.10
 _ZN5boost10wrapexceptINSt8ios_base7failureB5cxx11EED0Ev@Base 1.4.10
 _ZN5boost10wrapexceptINSt8ios_base7failureB5cxx11EED1Ev@Base 1.4.10
 _ZN5boost10wrapexceptISt11logic_errorED0Ev@Base 1.4.10
 _ZN5boost10wrapexceptISt11logic_errorED1Ev@Base 1.4.10
 _ZN5boost10wrapexceptISt12length_errorED0Ev@Base 1.4.10
 _ZN5boost10wrapexceptISt12length_errorED1Ev@Base 1.4.10
 _ZN5boost10wrapexceptISt13runtime_errorED0Ev@Base 1.4.10
 _ZN5boost10wrapexceptISt13runtime_errorED1Ev@Base 1.4.10
 _ZN5boost11make_sharedINS_3log11v2_mt_posix5sinks26basic_text_ostream_backendIcEEJEEENS_6detail15sp_if_not_arrayIT_E4typeEDpOT0_@Base 1.4.10
 _ZN5boost11make_sharedINS_3log11v2_mt_posix7sources3aux13logger_holderINS3_18severity_logger_mtINS2_7trivial14severity_levelEEEEEJPKcjS9_EEENS_6detail15sp_if_not_arrayIT_E4typeEDpOT0_@Base 1.4.10
 _ZN5boost12basic_formatIcSt11char_traitsIcESaIcEE18make_or_reuse_dataEm@Base 1.4.10
 _ZN5boost12basic_formatIcSt11char_traitsIcESaIcEE5clearEv@Base 1.4.10
 _ZN5boost12basic_formatIcSt11char_traitsIcESaIcEE5parseERKNSt7__cxx1112basic_stringIcS2_S3_EE@Base 1.4.10
 _ZN5boost12basic_formatIcSt11char_traitsIcESaIcEEC1EPKc@Base 1.4.10
 _ZN5boost12basic_formatIcSt11char_traitsIcESaIcEEC2EPKc@Base 1.4.10
 _ZN5boost12basic_formatIcSt11char_traitsIcESaIcEED1Ev@Base 1.4.10
 _ZN5boost12basic_formatIcSt11char_traitsIcESaIcEED2Ev@Base 1.4.10
 _ZN5boost12interprocess15basic_bufferbufIcSt11char_traitsIcEE7seekoffElSt12_Ios_SeekdirSt13_Ios_Openmode@Base 1.4.10
 _ZN5boost12interprocess15basic_bufferbufIcSt11char_traitsIcEE7seekposESt4fposI11__mbstate_tESt13_Ios_Openmode@Base 1.4.10
 _ZN5boost12interprocess15basic_bufferbufIcSt11char_traitsIcEE8overflowEi@Base 1.4.10
 _ZN5boost12interprocess15basic_bufferbufIcSt11char_traitsIcEE9pbackfailEi@Base 1.4.10
 _ZN5boost12interprocess15basic_bufferbufIcSt11char_traitsIcEE9underflowEv@Base 1.4.10
 _ZN5boost12interprocess15basic_bufferbufIcSt11char_traitsIcEED0Ev@Base 1.4.10
 _ZN5boost12interprocess15basic_bufferbufIcSt11char_traitsIcEED1Ev@Base 1.4.10
 _ZN5boost12interprocess15basic_bufferbufIcSt11char_traitsIcEED2Ev@Base 1.4.10
 _ZN5boost12interprocess18basic_bufferstreamIcSt11char_traitsIcEED0Ev@Base 1.4.10
 _ZN5boost12interprocess18basic_bufferstreamIcSt11char_traitsIcEED1Ev@Base 1.4.10
 _ZN5boost12sp_adl_block21intrusive_ptr_releaseINS_3log11v2_mt_posix9attribute4implENS0_19thread_safe_counterEEEvPKNS0_21intrusive_ref_counterIT_T0_EE@Base 1.4.10
 _ZN5boost14checked_deleteINS_9iostreams6detail10chain_baseINS1_5chainINS1_6outputEcSt11char_traitsIcESaIcEEEcS7_S8_S5_E10chain_implEEEvPT_@Base 1.4.10
 _ZN5boost15recursive_mutex6unlockEv@Base 1.4.10
 _ZN5boost15throw_exceptionINS_17bad_function_callEEEvRKT_@Base 1.4.10
 _ZN5boost15throw_exceptionINS_21thread_resource_errorEEEvRKT_@Base 1.4.10
 _ZN5boost15throw_exceptionINS_2io12too_few_argsEEEvRKT_@Base 1.4.10
 _ZN5boost15throw_exceptionINS_2io17bad_format_stringEEEvRKT_@Base 1.4.10
 _ZN5boost15throw_exceptionINS_6system12system_errorEEEvRKT_@Base 1.4.10
 _ZN5boost15throw_exceptionINS_9gregorian16bad_day_of_monthEEEvRKT_@Base 1.4.10
 _ZN5boost15throw_exceptionINSt8ios_base7failureB5cxx11EEEvRKT_@Base 1.4.10
 _ZN5boost15throw_exceptionISt11logic_errorEEvRKT_@Base 1.4.10
 _ZN5boost16exception_detail10clone_implINS0_19error_info_injectorINS_17bad_function_callEEEED0Ev@Base 1.4.10
 _ZN5boost16exception_detail10clone_implINS0_19error_info_injectorINS_17bad_function_callEEEED1Ev@Base 1.4.10
 _ZN5boost16exception_detail10clone_implINS0_19error_info_injectorINS_21thread_resource_errorEEEED0Ev@Base 1.4.10
 _ZN5boost16exception_detail10clone_implINS0_19error_info_injectorINS_21thread_resource_errorEEEED1Ev@Base 1.4.10
 _ZN5boost16exception_detail10clone_implINS0_19error_info_injectorINS_2io12too_few_argsEEEED0Ev@Base 1.4.10
 _ZN5boost16exception_detail10clone_implINS0_19error_info_injectorINS_2io12too_few_argsEEEED1Ev@Base 1.4.10
 _ZN5boost16exception_detail10clone_implINS0_19error_info_injectorINS_2io13too_many_argsEEEED0Ev@Base 1.4.10
 _ZN5boost16exception_detail10clone_implINS0_19error_info_injectorINS_2io13too_many_argsEEEED1Ev@Base 1.4.10
 _ZN5boost16exception_detail10clone_implINS0_19error_info_injectorINS_2io17bad_format_stringEEEED0Ev@Base 1.4.10
 _ZN5boost16exception_detail10clone_implINS0_19error_info_injectorINS_2io17bad_format_stringEEEED1Ev@Base 1.4.10
 _ZN5boost16exception_detail10clone_implINS0_19error_info_injectorINS_4asio12bad_executorEEEED0Ev@Base 1.4.10
 _ZN5boost16exception_detail10clone_implINS0_19error_info_injectorINS_4asio12bad_executorEEEED1Ev@Base 1.4.10
 _ZN5boost16exception_detail10clone_implINS0_19error_info_injectorINS_4asio21invalid_service_ownerEEEED0Ev@Base 1.4.10
 _ZN5boost16exception_detail10clone_implINS0_19error_info_injectorINS_4asio21invalid_service_ownerEEEED1Ev@Base 1.4.10
 _ZN5boost16exception_detail10clone_implINS0_19error_info_injectorINS_4asio22service_already_existsEEEED0Ev@Base 1.4.10
 _ZN5boost16exception_detail10clone_implINS0_19error_info_injectorINS_4asio22service_already_existsEEEED1Ev@Base 1.4.10
 _ZN5boost16exception_detail10clone_implINS0_19error_info_injectorINS_4asio2ip16bad_address_castEEEED0Ev@Base 1.4.10
 _ZN5boost16exception_detail10clone_implINS0_19error_info_injectorINS_4asio2ip16bad_address_castEEEED1Ev@Base 1.4.10
 _ZN5boost16exception_detail10clone_implINS0_19error_info_injectorINS_6system12system_errorEEEED0Ev@Base 1.4.10
 _ZN5boost16exception_detail10clone_implINS0_19error_info_injectorINS_6system12system_errorEEEED1Ev@Base 1.4.10
 _ZN5boost16exception_detail10clone_implINS0_19error_info_injectorINS_9gregorian16bad_day_of_monthEEEED0Ev@Base 1.4.10
 _ZN5boost16exception_detail10clone_implINS0_19error_info_injectorINS_9gregorian16bad_day_of_monthEEEED1Ev@Base 1.4.10
 _ZN5boost16exception_detail10clone_implINS0_19error_info_injectorINS_9gregorian8bad_yearEEEED0Ev@Base 1.4.10
 _ZN5boost16exception_detail10clone_implINS0_19error_info_injectorINS_9gregorian8bad_yearEEEED1Ev@Base 1.4.10
 _ZN5boost16exception_detail10clone_implINS0_19error_info_injectorINS_9gregorian9bad_monthEEEED0Ev@Base 1.4.10
 _ZN5boost16exception_detail10clone_implINS0_19error_info_injectorINS_9gregorian9bad_monthEEEED1Ev@Base 1.4.10
 _ZN5boost16exception_detail10clone_implINS0_19error_info_injectorINSt8ios_base7failureB5cxx11EEEED0Ev@Base 1.4.10
 _ZN5boost16exception_detail10clone_implINS0_19error_info_injectorINSt8ios_base7failureB5cxx11EEEED1Ev@Base 1.4.10
 _ZN5boost16exception_detail10clone_implINS0_19error_info_injectorISt11logic_errorEEED0Ev@Base 1.4.10
 _ZN5boost16exception_detail10clone_implINS0_19error_info_injectorISt11logic_errorEEED1Ev@Base 1.4.10
 _ZN5boost16exception_detail10clone_implINS0_19error_info_injectorISt12length_errorEEED0Ev@Base 1.4.10
 _ZN5boost16exception_detail10clone_implINS0_19error_info_injectorISt12length_errorEEED1Ev@Base 1.4.10
 _ZN5boost16exception_detail10clone_implINS0_19error_info_injectorISt13runtime_errorEEED0Ev@Base 1.4.10
 _ZN5boost16exception_detail10clone_implINS0_19error_info_injectorISt13runtime_errorEEED1Ev@Base 1.4.10
 _ZN5boost16exception_detail11enable_bothINS0_19error_info_injectorISt13runtime_errorEEEENS_10wrapexceptINS0_26remove_error_info_injectorIT_E4typeEEERKS7_@Base 1.4.10
 _ZN5boost16exception_detail11enable_bothINS_17bad_function_callEEENS_10wrapexceptINS0_26remove_error_info_injectorIT_E4typeEEERKS5_@Base 1.4.10
 _ZN5boost16exception_detail11enable_bothINS_21thread_resource_errorEEENS_10wrapexceptINS0_26remove_error_info_injectorIT_E4typeEEERKS5_@Base 1.4.10
 _ZN5boost16exception_detail11enable_bothINS_2io12too_few_argsEEENS_10wrapexceptINS0_26remove_error_info_injectorIT_E4typeEEERKS6_@Base 1.4.10
 _ZN5boost16exception_detail11enable_bothINS_2io13too_many_argsEEENS_10wrapexceptINS0_26remove_error_info_injectorIT_E4typeEEERKS6_@Base 1.4.10
 _ZN5boost16exception_detail11enable_bothINS_2io17bad_format_stringEEENS_10wrapexceptINS0_26remove_error_info_injectorIT_E4typeEEERKS6_@Base 1.4.10
 _ZN5boost16exception_detail11enable_bothINS_4asio21invalid_service_ownerEEENS_10wrapexceptINS0_26remove_error_info_injectorIT_E4typeEEERKS6_@Base 1.4.10
 _ZN5boost16exception_detail11enable_bothINS_4asio22service_already_existsEEENS_10wrapexceptINS0_26remove_error_info_injectorIT_E4typeEEERKS6_@Base 1.4.10
 _ZN5boost16exception_detail11enable_bothINS_6system12system_errorEEENS_10wrapexceptINS0_26remove_error_info_injectorIT_E4typeEEERKS6_@Base 1.4.10
 _ZN5boost16exception_detail11enable_bothINS_9gregorian16bad_day_of_monthEEENS_10wrapexceptINS0_26remove_error_info_injectorIT_E4typeEEERKS6_@Base 1.4.10
 _ZN5boost16exception_detail11enable_bothINS_9gregorian8bad_yearEEENS_10wrapexceptINS0_26remove_error_info_injectorIT_E4typeEEERKS6_@Base 1.4.10
 _ZN5boost16exception_detail11enable_bothINS_9gregorian9bad_monthEEENS_10wrapexceptINS0_26remove_error_info_injectorIT_E4typeEEERKS6_@Base 1.4.10
 _ZN5boost16exception_detail11enable_bothINSt8ios_base7failureB5cxx11EEENS_10wrapexceptINS0_26remove_error_info_injectorIT_E4typeEEERKS6_@Base 1.4.10
 _ZN5boost16exception_detail11enable_bothISt11logic_errorEENS_10wrapexceptINS0_26remove_error_info_injectorIT_E4typeEEERKS5_@Base 1.4.10
 _ZN5boost16exception_detail11enable_bothISt12length_errorEENS_10wrapexceptINS0_26remove_error_info_injectorIT_E4typeEEERKS5_@Base 1.4.10
 _ZN5boost16exception_detail11enable_bothISt13runtime_errorEENS_10wrapexceptINS0_26remove_error_info_injectorIT_E4typeEEERKS5_@Base 1.4.10
 _ZN5boost16exception_detail19error_info_injectorINS_17bad_function_callEEC1ERKS3_@Base 1.4.10
 _ZN5boost16exception_detail19error_info_injectorINS_17bad_function_callEEC2ERKS3_@Base 1.4.10
 _ZN5boost16exception_detail19error_info_injectorINS_17bad_function_callEED0Ev@Base 1.4.10
 _ZN5boost16exception_detail19error_info_injectorINS_17bad_function_callEED1Ev@Base 1.4.10
 _ZN5boost16exception_detail19error_info_injectorINS_17bad_function_callEED2Ev@Base 1.4.10
 _ZN5boost16exception_detail19error_info_injectorINS_21thread_resource_errorEEC1ERKS3_@Base 1.4.10
 _ZN5boost16exception_detail19error_info_injectorINS_21thread_resource_errorEEC2ERKS3_@Base 1.4.10
 _ZN5boost16exception_detail19error_info_injectorINS_21thread_resource_errorEED0Ev@Base 1.4.10
 _ZN5boost16exception_detail19error_info_injectorINS_21thread_resource_errorEED1Ev@Base 1.4.10
 _ZN5boost16exception_detail19error_info_injectorINS_21thread_resource_errorEED2Ev@Base 1.4.10
 _ZN5boost16exception_detail19error_info_injectorINS_2io12too_few_argsEEC1ERKS4_@Base 1.4.10
 _ZN5boost16exception_detail19error_info_injectorINS_2io12too_few_argsEEC2ERKS4_@Base 1.4.10
 _ZN5boost16exception_detail19error_info_injectorINS_2io12too_few_argsEED0Ev@Base 1.4.10
 _ZN5boost16exception_detail19error_info_injectorINS_2io12too_few_argsEED1Ev@Base 1.4.10
 _ZN5boost16exception_detail19error_info_injectorINS_2io12too_few_argsEED2Ev@Base 1.4.10
 _ZN5boost16exception_detail19error_info_injectorINS_2io13too_many_argsEEC1ERKS4_@Base 1.4.10
 _ZN5boost16exception_detail19error_info_injectorINS_2io13too_many_argsEEC2ERKS4_@Base 1.4.10
 _ZN5boost16exception_detail19error_info_injectorINS_2io13too_many_argsEED0Ev@Base 1.4.10
 _ZN5boost16exception_detail19error_info_injectorINS_2io13too_many_argsEED1Ev@Base 1.4.10
 _ZN5boost16exception_detail19error_info_injectorINS_2io13too_many_argsEED2Ev@Base 1.4.10
 _ZN5boost16exception_detail19error_info_injectorINS_2io17bad_format_stringEEC1ERKS4_@Base 1.4.10
 _ZN5boost16exception_detail19error_info_injectorINS_2io17bad_format_stringEEC2ERKS4_@Base 1.4.10
 _ZN5boost16exception_detail19error_info_injectorINS_2io17bad_format_stringEED0Ev@Base 1.4.10
 _ZN5boost16exception_detail19error_info_injectorINS_2io17bad_format_stringEED1Ev@Base 1.4.10
 _ZN5boost16exception_detail19error_info_injectorINS_2io17bad_format_stringEED2Ev@Base 1.4.10
 _ZN5boost16exception_detail19error_info_injectorINS_4asio12bad_executorEEC1ERKS4_@Base 1.4.10
 _ZN5boost16exception_detail19error_info_injectorINS_4asio12bad_executorEEC2ERKS4_@Base 1.4.10
 _ZN5boost16exception_detail19error_info_injectorINS_4asio12bad_executorEED0Ev@Base 1.4.10
 _ZN5boost16exception_detail19error_info_injectorINS_4asio12bad_executorEED1Ev@Base 1.4.10
 _ZN5boost16exception_detail19error_info_injectorINS_4asio12bad_executorEED2Ev@Base 1.4.10
 _ZN5boost16exception_detail19error_info_injectorINS_4asio21invalid_service_ownerEEC1ERKS4_@Base 1.4.10
 _ZN5boost16exception_detail19error_info_injectorINS_4asio21invalid_service_ownerEEC2ERKS4_@Base 1.4.10
 _ZN5boost16exception_detail19error_info_injectorINS_4asio21invalid_service_ownerEED0Ev@Base 1.4.10
 _ZN5boost16exception_detail19error_info_injectorINS_4asio21invalid_service_ownerEED1Ev@Base 1.4.10
 _ZN5boost16exception_detail19error_info_injectorINS_4asio21invalid_service_ownerEED2Ev@Base 1.4.10
 _ZN5boost16exception_detail19error_info_injectorINS_4asio22service_already_existsEEC1ERKS4_@Base 1.4.10
 _ZN5boost16exception_detail19error_info_injectorINS_4asio22service_already_existsEEC2ERKS4_@Base 1.4.10
 _ZN5boost16exception_detail19error_info_injectorINS_4asio22service_already_existsEED0Ev@Base 1.4.10
 _ZN5boost16exception_detail19error_info_injectorINS_4asio22service_already_existsEED1Ev@Base 1.4.10
 _ZN5boost16exception_detail19error_info_injectorINS_4asio22service_already_existsEED2Ev@Base 1.4.10
 _ZN5boost16exception_detail19error_info_injectorINS_4asio2ip16bad_address_castEEC1ERKS5_@Base 1.4.10
 _ZN5boost16exception_detail19error_info_injectorINS_4asio2ip16bad_address_castEEC2ERKS5_@Base 1.4.10
 _ZN5boost16exception_detail19error_info_injectorINS_4asio2ip16bad_address_castEED0Ev@Base 1.4.10
 _ZN5boost16exception_detail19error_info_injectorINS_4asio2ip16bad_address_castEED1Ev@Base 1.4.10
 _ZN5boost16exception_detail19error_info_injectorINS_4asio2ip16bad_address_castEED2Ev@Base 1.4.10
 _ZN5boost16exception_detail19error_info_injectorINS_6system12system_errorEEC1ERKS4_@Base 1.4.10
 _ZN5boost16exception_detail19error_info_injectorINS_6system12system_errorEEC2ERKS4_@Base 1.4.10
 _ZN5boost16exception_detail19error_info_injectorINS_6system12system_errorEED0Ev@Base 1.4.10
 _ZN5boost16exception_detail19error_info_injectorINS_6system12system_errorEED1Ev@Base 1.4.10
 _ZN5boost16exception_detail19error_info_injectorINS_6system12system_errorEED2Ev@Base 1.4.10
 _ZN5boost16exception_detail19error_info_injectorINS_9gregorian16bad_day_of_monthEEC1ERKS4_@Base 1.4.10
 _ZN5boost16exception_detail19error_info_injectorINS_9gregorian16bad_day_of_monthEEC2ERKS4_@Base 1.4.10
 _ZN5boost16exception_detail19error_info_injectorINS_9gregorian16bad_day_of_monthEED0Ev@Base 1.4.10
 _ZN5boost16exception_detail19error_info_injectorINS_9gregorian16bad_day_of_monthEED1Ev@Base 1.4.10
 _ZN5boost16exception_detail19error_info_injectorINS_9gregorian16bad_day_of_monthEED2Ev@Base 1.4.10
 _ZN5boost16exception_detail19error_info_injectorINS_9gregorian8bad_yearEEC1ERKS4_@Base 1.4.10
 _ZN5boost16exception_detail19error_info_injectorINS_9gregorian8bad_yearEEC2ERKS4_@Base 1.4.10
 _ZN5boost16exception_detail19error_info_injectorINS_9gregorian8bad_yearEED0Ev@Base 1.4.10
 _ZN5boost16exception_detail19error_info_injectorINS_9gregorian8bad_yearEED1Ev@Base 1.4.10
 _ZN5boost16exception_detail19error_info_injectorINS_9gregorian8bad_yearEED2Ev@Base 1.4.10
 _ZN5boost16exception_detail19error_info_injectorINS_9gregorian9bad_monthEEC1ERKS4_@Base 1.4.10
 _ZN5boost16exception_detail19error_info_injectorINS_9gregorian9bad_monthEEC2ERKS4_@Base 1.4.10
 _ZN5boost16exception_detail19error_info_injectorINS_9gregorian9bad_monthEED0Ev@Base 1.4.10
 _ZN5boost16exception_detail19error_info_injectorINS_9gregorian9bad_monthEED1Ev@Base 1.4.10
 _ZN5boost16exception_detail19error_info_injectorINS_9gregorian9bad_monthEED2Ev@Base 1.4.10
 _ZN5boost16exception_detail19error_info_injectorINSt8ios_base7failureB5cxx11EEC1ERKS4_@Base 1.4.10
 _ZN5boost16exception_detail19error_info_injectorINSt8ios_base7failureB5cxx11EEC2ERKS4_@Base 1.4.10
 _ZN5boost16exception_detail19error_info_injectorINSt8ios_base7failureB5cxx11EED0Ev@Base 1.4.10
 _ZN5boost16exception_detail19error_info_injectorINSt8ios_base7failureB5cxx11EED1Ev@Base 1.4.10
 _ZN5boost16exception_detail19error_info_injectorINSt8ios_base7failureB5cxx11EED2Ev@Base 1.4.10
 _ZN5boost16exception_detail19error_info_injectorISt11logic_errorEC1ERKS3_@Base 1.4.10
 _ZN5boost16exception_detail19error_info_injectorISt11logic_errorEC2ERKS3_@Base 1.4.10
 _ZN5boost16exception_detail19error_info_injectorISt11logic_errorED0Ev@Base 1.4.10
 _ZN5boost16exception_detail19error_info_injectorISt11logic_errorED1Ev@Base 1.4.10
 _ZN5boost16exception_detail19error_info_injectorISt11logic_errorED2Ev@Base 1.4.10
 _ZN5boost16exception_detail19error_info_injectorISt12length_errorEC1ERKS3_@Base 1.4.10
 _ZN5boost16exception_detail19error_info_injectorISt12length_errorEC2ERKS3_@Base 1.4.10
 _ZN5boost16exception_detail19error_info_injectorISt12length_errorED0Ev@Base 1.4.10
 _ZN5boost16exception_detail19error_info_injectorISt12length_errorED1Ev@Base 1.4.10
 _ZN5boost16exception_detail19error_info_injectorISt12length_errorED2Ev@Base 1.4.10
 _ZN5boost16exception_detail19error_info_injectorISt13runtime_errorEC1ERKS3_@Base 1.4.10
 _ZN5boost16exception_detail19error_info_injectorISt13runtime_errorEC2ERKS3_@Base 1.4.10
 _ZN5boost16exception_detail19error_info_injectorISt13runtime_errorED0Ev@Base 1.4.10
 _ZN5boost16exception_detail19error_info_injectorISt13runtime_errorED1Ev@Base 1.4.10
 _ZN5boost16exception_detail19error_info_injectorISt13runtime_errorED2Ev@Base 1.4.10
 _ZN5boost16exception_detail20copy_boost_exceptionEPNS_9exceptionEPKS1_@Base 1.4.10
 _ZN5boost16thread_exceptionD0Ev@Base 1.4.10
 _ZN5boost16thread_exceptionD1Ev@Base 1.4.10
 _ZN5boost16thread_exceptionD2Ev@Base 1.4.10
 _ZN5boost17bad_function_callD0Ev@Base 1.4.10
 _ZN5boost17bad_function_callD1Ev@Base 1.4.10
 _ZN5boost17bad_function_callD2Ev@Base 1.4.10
 _ZN5boost19thread_specific_ptrINS_3log11v2_mt_posix5sinks30basic_formatting_sink_frontendIcE18formatting_contextEE14cleanup_callerEPFvPvES8_@Base 1.4.10
 _ZN5boost19thread_specific_ptrINS_3log11v2_mt_posix5sinks30basic_formatting_sink_frontendIcE18formatting_contextEE15default_deleterEPS6_@Base 1.4.10
 _ZN5boost21thread_resource_errorD0Ev@Base 1.4.10
 _ZN5boost21thread_resource_errorD1Ev@Base 1.4.10
 _ZN5boost21thread_resource_errorD2Ev@Base 1.4.10
 _ZN5boost2CV23simple_exception_policyItLt1400ELt9999ENS_9gregorian8bad_yearEE8on_errorEttNS0_14violation_enumE@Base 1.4.10
 _ZN5boost2CV23simple_exception_policyItLt1ELt12ENS_9gregorian9bad_monthEE8on_errorEttNS0_14violation_enumE@Base 1.4.10
 _ZN5boost2CV23simple_exception_policyItLt1ELt31ENS_9gregorian16bad_day_of_monthEE8on_errorEttNS0_14violation_enumE@Base 1.4.10
 _ZN5boost2io12format_errorD0Ev@Base 1.4.10
 _ZN5boost2io12format_errorD1Ev@Base 1.4.10
 _ZN5boost2io12format_errorD2Ev@Base 1.4.10
 _ZN5boost2io12too_few_argsD0Ev@Base 1.4.10
 _ZN5boost2io12too_few_argsD1Ev@Base 1.4.10
 _ZN5boost2io12too_few_argsD2Ev@Base 1.4.10
 _ZN5boost2io13too_many_argsD0Ev@Base 1.4.10
 _ZN5boost2io13too_many_argsD1Ev@Base 1.4.10
 _ZN5boost2io13too_many_argsD2Ev@Base 1.4.10
 _ZN5boost2io17bad_format_stringD0Ev@Base 1.4.10
 _ZN5boost2io17bad_format_stringD1Ev@Base 1.4.10
 _ZN5boost2io17bad_format_stringD2Ev@Base 1.4.10
 _ZN5boost2io18basic_altstringbufIcSt11char_traitsIcESaIcEE12clear_bufferEv@Base 1.4.10
 _ZN5boost2io18basic_altstringbufIcSt11char_traitsIcESaIcEE7seekoffElSt12_Ios_SeekdirSt13_Ios_Openmode@Base 1.4.10
 _ZN5boost2io18basic_altstringbufIcSt11char_traitsIcESaIcEE7seekposESt4fposI11__mbstate_tESt13_Ios_Openmode@Base 1.4.10
 _ZN5boost2io18basic_altstringbufIcSt11char_traitsIcESaIcEE8overflowEi@Base 1.4.10
 _ZN5boost2io18basic_altstringbufIcSt11char_traitsIcESaIcEE9pbackfailEi@Base 1.4.10
 _ZN5boost2io18basic_altstringbufIcSt11char_traitsIcESaIcEE9underflowEv@Base 1.4.10
 _ZN5boost2io18basic_altstringbufIcSt11char_traitsIcESaIcEED0Ev@Base 1.4.10
 _ZN5boost2io18basic_altstringbufIcSt11char_traitsIcESaIcEED1Ev@Base 1.4.10
 _ZN5boost2io18basic_altstringbufIcSt11char_traitsIcESaIcEED2Ev@Base 1.4.10
 _ZN5boost2io22basic_oaltstringstreamIcSt11char_traitsIcESaIcEED0Ev@Base 1.4.10
 _ZN5boost2io22basic_oaltstringstreamIcSt11char_traitsIcESaIcEED1Ev@Base 1.4.10
 _ZN5boost2io6detail10distributeIcSt11char_traitsIcESaIcERKNS1_10put_holderIcS4_EEEEvRNS_12basic_formatIT_T0_T1_EET2_@Base 1.4.10
 _ZN5boost2io6detail11format_itemIcSt11char_traitsIcESaIcEEC1EOS6_@Base 1.4.10
 _ZN5boost2io6detail11format_itemIcSt11char_traitsIcESaIcEEC2EOS6_@Base 1.4.10
 _ZN5boost2io6detail11format_itemIcSt11char_traitsIcESaIcEED1Ev@Base 1.4.10
 _ZN5boost2io6detail11format_itemIcSt11char_traitsIcESaIcEED2Ev@Base 1.4.10
 _ZN5boost2io6detail13call_put_headIcSt11char_traitsIcEK9HopStatusEEvRSt13basic_ostreamIT_T0_EPKv@Base 1.4.10
 _ZN5boost2io6detail13call_put_headIcSt11char_traitsIcEKNSt7__cxx1112basic_stringIcS4_SaIcEEEEEvRSt13basic_ostreamIT_T0_EPKv@Base 1.4.10
 _ZN5boost2io6detail13call_put_headIcSt11char_traitsIcEKdEEvRSt13basic_ostreamIT_T0_EPKv@Base 1.4.10
 _ZN5boost2io6detail13call_put_headIcSt11char_traitsIcEKiEEvRSt13basic_ostreamIT_T0_EPKv@Base 1.4.10
 _ZN5boost2io6detail13call_put_headIcSt11char_traitsIcEKjEEvRSt13basic_ostreamIT_T0_EPKv@Base 1.4.10
 _ZN5boost2io6detail13call_put_headIcSt11char_traitsIcEKlEEvRSt13basic_ostreamIT_T0_EPKv@Base 1.4.10
 _ZN5boost2io6detail13call_put_headIcSt11char_traitsIcEKmEEvRSt13basic_ostreamIT_T0_EPKv@Base 1.4.10
 _ZN5boost2io6detail13call_put_headIcSt11char_traitsIcEKtEEvRSt13basic_ostreamIT_T0_EPKv@Base 1.4.10
 _ZN5boost2io6detail13call_put_headIcSt11char_traitsIcEPKcEEvRSt13basic_ostreamIT_T0_EPKv@Base 1.4.10
 _ZN5boost2io6detail13call_put_headIcSt11char_traitsIcEjEEvRSt13basic_ostreamIT_T0_EPKv@Base 1.4.10
 _ZN5boost2io6detail13call_put_headIcSt11char_traitsIcEmEEvRSt13basic_ostreamIT_T0_EPKv@Base 1.4.10
 _ZN5boost2io6detail13call_put_headIcSt11char_traitsIcEyEEvRSt13basic_ostreamIT_T0_EPKv@Base 1.4.10
 _ZN5boost2io6detail13call_put_lastIcSt11char_traitsIcEK9HopStatusEEvRSt13basic_ostreamIT_T0_EPKv@Base 1.4.10
 _ZN5boost2io6detail13call_put_lastIcSt11char_traitsIcEKNSt7__cxx1112basic_stringIcS4_SaIcEEEEEvRSt13basic_ostreamIT_T0_EPKv@Base 1.4.10
 _ZN5boost2io6detail13call_put_lastIcSt11char_traitsIcEKdEEvRSt13basic_ostreamIT_T0_EPKv@Base 1.4.10
 _ZN5boost2io6detail13call_put_lastIcSt11char_traitsIcEKiEEvRSt13basic_ostreamIT_T0_EPKv@Base 1.4.10
 _ZN5boost2io6detail13call_put_lastIcSt11char_traitsIcEKjEEvRSt13basic_ostreamIT_T0_EPKv@Base 1.4.10
 _ZN5boost2io6detail13call_put_lastIcSt11char_traitsIcEKlEEvRSt13basic_ostreamIT_T0_EPKv@Base 1.4.10
 _ZN5boost2io6detail13call_put_lastIcSt11char_traitsIcEKmEEvRSt13basic_ostreamIT_T0_EPKv@Base 1.4.10
 _ZN5boost2io6detail13call_put_lastIcSt11char_traitsIcEKtEEvRSt13basic_ostreamIT_T0_EPKv@Base 1.4.10
 _ZN5boost2io6detail13call_put_lastIcSt11char_traitsIcEPKcEEvRSt13basic_ostreamIT_T0_EPKv@Base 1.4.10
 _ZN5boost2io6detail13call_put_lastIcSt11char_traitsIcEjEEvRSt13basic_ostreamIT_T0_EPKv@Base 1.4.10
 _ZN5boost2io6detail13call_put_lastIcSt11char_traitsIcEmEEvRSt13basic_ostreamIT_T0_EPKv@Base 1.4.10
 _ZN5boost2io6detail13call_put_lastIcSt11char_traitsIcEyEEvRSt13basic_ostreamIT_T0_EPKv@Base 1.4.10
 _ZN5boost2io6detail21maybe_throw_exceptionEhmm@Base 1.4.10
 _ZN5boost2io6detail22parse_printf_directiveIcSt11char_traitsIcESaIcEN9__gnu_cxx17__normal_iteratorIPKcNSt7__cxx1112basic_stringIcS4_S5_EEEESt5ctypeIcEEEbRT2_RKSG_PNS1_11format_itemIT_T0_T1_EERKT3_mh@Base 1.4.10
 _ZN5boost2io6detail24upper_bound_from_fstringINSt7__cxx1112basic_stringIcSt11char_traitsIcESaIcEEESt5ctypeIcEEEiRKT_NSB_10value_typeERKT0_h@Base 1.4.10
 _ZN5boost2io6detail3putIcSt11char_traitsIcESaIcERKNS1_10put_holderIcS4_EEEEvT2_RKNS1_11format_itemIT_T0_T1_EERNS_12basic_formatISC_SD_SE_E11string_typeERNSJ_20internal_streambuf_tEPSt6locale@Base 1.4.10
 _ZN5boost2io6detail6mk_strIcSt11char_traitsIcESaIcEEEvRNSt7__cxx1112basic_stringIT_T0_T1_EEPKS8_NSB_9size_typeElS8_St13_Ios_FmtflagsS8_b@Base 1.4.10
 _ZN5boost2io6detail7str2intIlN9__gnu_cxx17__normal_iteratorIPKcNSt7__cxx1112basic_stringIcSt11char_traitsIcESaIcEEEEESt5ctypeIcEEET0_RKSG_SI_RT_RKT1_@Base 1.4.10
 _ZN5boost2io6detail9feed_implIcSt11char_traitsIcESaIcERKNS1_10put_holderIcS4_EEEERNS_12basic_formatIT_T0_T1_EESF_T2_@Base 1.4.10
 _ZN5boost3log11v2_mt_posix10attributes11basic_clockINS2_17local_time_traitsEE4impl9get_valueEv@Base 1.4.10
 _ZN5boost3log11v2_mt_posix10attributes11basic_clockINS2_17local_time_traitsEE4implD0Ev@Base 1.4.10
 _ZN5boost3log11v2_mt_posix10attributes11basic_clockINS2_17local_time_traitsEE4implD1Ev@Base 1.4.10
 _ZN5boost3log11v2_mt_posix10attributes11basic_clockINS2_17local_time_traitsEE4implD2Ev@Base 1.4.10
 _ZN5boost3log11v2_mt_posix10attributes20attribute_value_implINS1_7trivial14severity_levelEE8dispatchERNS1_15type_dispatcherE@Base 1.4.10
 _ZN5boost3log11v2_mt_posix10attributes20attribute_value_implINS1_7trivial14severity_levelEED0Ev@Base 1.4.10
 _ZN5boost3log11v2_mt_posix10attributes20attribute_value_implINS1_7trivial14severity_levelEED1Ev@Base 1.4.10
 _ZN5boost3log11v2_mt_posix10attributes20attribute_value_implINS1_7trivial14severity_levelEED2Ev@Base 1.4.10
 _ZN5boost3log11v2_mt_posix10attributes20attribute_value_implINS_10posix_time5ptimeEE8dispatchERNS1_15type_dispatcherE@Base 1.4.10
 _ZN5boost3log11v2_mt_posix10attributes20attribute_value_implINS_10posix_time5ptimeEED0Ev@Base 1.4.10
 _ZN5boost3log11v2_mt_posix10attributes20attribute_value_implINS_10posix_time5ptimeEED1Ev@Base 1.4.10
 _ZN5boost3log11v2_mt_posix10attributes20attribute_value_implINS_10posix_time5ptimeEED2Ev@Base 1.4.10
 _ZN5boost3log11v2_mt_posix11expressions3aux25attribute_output_terminalINS_7phoenix5actorINS3_23if_else_output_terminalINS6_INS_5proto7exprns_10basic_exprINS8_6tagns_3tag8terminalENS8_7argsns_4termINS5_8argumentILi2EEEEELl0EEEEENS6_INSA_INSC_10less_equalENSE_5list2INS2_15attribute_actorINS1_7trivial14severity_levelENS1_16fallback_to_noneENSO_3tag8severityES6_EENS6_INSA_ISD_NSF_ISP_EELl0EEEEEEELl2EEEEENS6_INSA_INSC_10shift_leftENSM_ISK_NS6_INSA_ISD_NSF_IA6_cEELl0EEEEEEELl2EEEEENS6_INS7_ISK_NS6_INSA_INSC_8equal_toESX_Ll2EEEEES17_NS6_INS7_ISK_S1A_S17_NS6_INS7_ISK_S1A_S17_NS6_INS7_ISK_S1A_NS6_INSA_IS10_NSM_ISK_NS6_INSA_ISD_NSF_IA8_cEELl0EEEEEEELl2EEEEENS6_INSA_IS10_NSM_ISK_NS6_INSA_ISD_NSF_IA11_cEELl0EEEEEEELl2EEEEEEEEEEEEEEEEEEEEEEEEENS_10posix_time5ptimeESQ_NS1_3aux14light_functionIFvRNS1_24basic_formatting_ostreamIcSt11char_traitsIcESaIcEEERKS20_EEEEC1ERKS2D_@Base 1.4.10
 _ZN5boost3log11v2_mt_posix11expressions3aux25attribute_output_terminalINS_7phoenix5actorINS3_23if_else_output_terminalINS6_INS_5proto7exprns_10basic_exprINS8_6tagns_3tag8terminalENS8_7argsns_4termINS5_8argumentILi2EEEEELl0EEEEENS6_INSA_INSC_10less_equalENSE_5list2INS2_15attribute_actorINS1_7trivial14severity_levelENS1_16fallback_to_noneENSO_3tag8severityES6_EENS6_INSA_ISD_NSF_ISP_EELl0EEEEEEELl2EEEEENS6_INSA_INSC_10shift_leftENSM_ISK_NS6_INSA_ISD_NSF_IA6_cEELl0EEEEEEELl2EEEEENS6_INS7_ISK_NS6_INSA_INSC_8equal_toESX_Ll2EEEEES17_NS6_INS7_ISK_S1A_S17_NS6_INS7_ISK_S1A_S17_NS6_INS7_ISK_S1A_NS6_INSA_IS10_NSM_ISK_NS6_INSA_ISD_NSF_IA8_cEELl0EEEEEEELl2EEEEENS6_INSA_IS10_NSM_ISK_NS6_INSA_ISD_NSF_IA11_cEELl0EEEEEEELl2EEEEEEEEEEEEEEEEEEEEEEEEENS_10posix_time5ptimeESQ_NS1_3aux14light_functionIFvRNS1_24basic_formatting_ostreamIcSt11char_traitsIcESaIcEEERKS20_EEEEC2ERKS2D_@Base 1.4.10
 _ZN5boost3log11v2_mt_posix15attribute_value4impl18detach_from_threadEv@Base 1.4.10
 _ZN5boost3log11v2_mt_posix15attribute_value4impl9get_valueEv@Base 1.4.10
 _ZN5boost3log11v2_mt_posix15type_dispatcher13callback_base10trampolineINS1_3aux21value_ref_initializerINS1_9value_refINS1_7trivial14severity_levelENS8_3tag8severityEEEEES9_EEvPvRKT0_@Base 1.4.10
 _ZN5boost3log11v2_mt_posix15type_dispatcher13callback_base10trampolineINS1_3aux21value_ref_initializerINS1_9value_refINSt7__cxx1112basic_stringIcSt11char_traitsIcESaIcEEENS1_11expressions3tag8smessageEEEEESD_EEvPvRKT0_@Base 1.4.10
 _ZN5boost3log11v2_mt_posix15type_dispatcher13callback_base10trampolineINS1_9binder1stINS1_10output_funERNS1_11expressions3aux10stream_refINS1_24basic_formatting_ostreamIcSt11char_traitsIcESaIcEEEEEEENSt7__cxx1112basic_stringIcSC_SD_EEEEvPvRKT0_@Base 1.4.10
 _ZN5boost3log11v2_mt_posix15type_dispatcher13callback_base10trampolineINS1_9binder1stINS1_10output_funERNS1_11expressions3aux10stream_refINS1_24basic_formatting_ostreamIcSt11char_traitsIcESaIcEEEEEEENSt7__cxx1112basic_stringIwSB_IwESaIwEEEEEvPvRKT0_@Base 1.4.10
 _ZN5boost3log11v2_mt_posix15type_dispatcher13callback_base10trampolineINS1_9binder1stIRKNS1_3aux14light_functionIFvRNS1_24basic_formatting_ostreamIcSt11char_traitsIcESaIcEEERKNS_10posix_time5ptimeEEEERNS1_11expressions3aux10stream_refISC_EEEESF_EEvPvRKT0_@Base 1.4.10
 _ZN5boost3log11v2_mt_posix24basic_formatting_ostreamIcSt11char_traitsIcESaIcEE13aligned_writeEPKcl@Base 1.4.10
 _ZN5boost3log11v2_mt_posix24basic_formatting_ostreamIcSt11char_traitsIcESaIcEE13aligned_writeIwEEvPKT_l@Base 1.4.10
 _ZN5boost3log11v2_mt_posix24basic_formatting_ostreamIcSt11char_traitsIcESaIcEE15formatted_writeEPKcl@Base 1.4.10
 _ZN5boost3log11v2_mt_posix24basic_formatting_ostreamIcSt11char_traitsIcESaIcEElsEPKc@Base 1.4.10
 _ZN5boost3log11v2_mt_posix3aux11locking_ptrINS1_5sinks26basic_text_ostream_backendIcEENS_15recursive_mutexEED1Ev@Base 1.4.10
 _ZN5boost3log11v2_mt_posix3aux11locking_ptrINS1_5sinks26basic_text_ostream_backendIcEENS_15recursive_mutexEED2Ev@Base 1.4.10
 _ZN5boost3log11v2_mt_posix3aux11record_pumpINS1_7sources18severity_logger_mtINS1_7trivial14severity_levelEEEED1Ev@Base 1.4.10
 _ZN5boost3log11v2_mt_posix3aux11record_pumpINS1_7sources18severity_logger_mtINS1_7trivial14severity_levelEEEED2Ev@Base 1.4.10
 _ZN5boost3log11v2_mt_posix3aux14light_functionIFbRKNS1_19attribute_value_setEEE4implINS1_6filter14default_filterEE10clone_implEPKv@Base 1.4.10
 _ZN5boost3log11v2_mt_posix3aux14light_functionIFbRKNS1_19attribute_value_setEEE4implINS1_6filter14default_filterEE11invoke_implEPvS6_@Base 1.4.10
 _ZN5boost3log11v2_mt_posix3aux14light_functionIFbRKNS1_19attribute_value_setEEE4implINS1_6filter14default_filterEE12destroy_implEPv@Base 1.4.10
 _ZN5boost3log11v2_mt_posix3aux14light_functionIFbRKNS1_19attribute_value_setEEE4implINS_7phoenix5actorINS_5proto7exprns_10basic_exprINSC_6tagns_3tag13greater_equalENSC_7argsns_5list2INS1_11expressions15attribute_actorINS1_7trivial14severity_levelENS1_16fallback_to_noneENSM_3tag8severityESB_EENSB_INSE_INSG_8terminalENSI_4termIjEELl0EEEEEEELl2EEEEEE10clone_implEPKv@Base 1.4.10
 _ZN5boost3log11v2_mt_posix3aux14light_functionIFbRKNS1_19attribute_value_setEEE4implINS_7phoenix5actorINS_5proto7exprns_10basic_exprINSC_6tagns_3tag13greater_equalENSC_7argsns_5list2INS1_11expressions15attribute_actorINS1_7trivial14severity_levelENS1_16fallback_to_noneENSM_3tag8severityESB_EENSB_INSE_INSG_8terminalENSI_4termIjEELl0EEEEEEELl2EEEEEE11invoke_implEPvS6_@Base 1.4.10
 _ZN5boost3log11v2_mt_posix3aux14light_functionIFbRKNS1_19attribute_value_setEEE4implINS_7phoenix5actorINS_5proto7exprns_10basic_exprINSC_6tagns_3tag13greater_equalENSC_7argsns_5list2INS1_11expressions15attribute_actorINS1_7trivial14severity_levelENS1_16fallback_to_noneENSM_3tag8severityESB_EENSB_INSE_INSG_8terminalENSI_4termIjEELl0EEEEEEELl2EEEEEE12destroy_implEPv@Base 1.4.10
 _ZN5boost3log11v2_mt_posix3aux14light_functionIFvRKNS1_11record_viewENS1_11expressions3aux10stream_refINS1_24basic_formatting_ostreamIcSt11char_traitsIcESaIcEEEEEEE4implINS8_17message_formatterEE10clone_implEPKv@Base 1.4.10
 _ZN5boost3log11v2_mt_posix3aux14light_functionIFvRKNS1_11record_viewENS1_11expressions3aux10stream_refINS1_24basic_formatting_ostreamIcSt11char_traitsIcESaIcEEEEEEE4implINS8_17message_formatterEE11invoke_implEPvS6_SF_@Base 1.4.10
 _ZN5boost3log11v2_mt_posix3aux14light_functionIFvRKNS1_11record_viewENS1_11expressions3aux10stream_refINS1_24basic_formatting_ostreamIcSt11char_traitsIcESaIcEEEEEEE4implINS8_17message_formatterEE12destroy_implEPv@Base 1.4.10
 _ZN5boost3log11v2_mt_posix3aux14light_functionIFvRKNS1_11record_viewENS1_11expressions3aux10stream_refINS1_24basic_formatting_ostreamIcSt11char_traitsIcESaIcEEEEEEE4implINS_7phoenix5actorINS_5proto7exprns_10basic_exprINSL_6tagns_3tag10shift_leftENSL_7argsns_5list2INSK_INSN_ISQ_NSS_INSK_INSN_ISQ_NSS_INSK_INSN_ISQ_NSS_INSK_INSN_ISQ_NSS_INSK_INSN_ISQ_NSS_INSK_INS8_25attribute_output_terminalINSK_INS8_23if_else_output_terminalINSK_INSN_INSP_8terminalENSR_4termINSJ_8argumentILi2EEEEELl0EEEEENSK_INSN_INSP_10less_equalENSS_INS7_15attribute_actorINS1_7trivial14severity_levelENS1_16fallback_to_noneENS14_3tag8severityESK_EENSK_INSN_ISV_NSW_IS15_EELl0EEEEEEELl2EEEEENSK_INSN_ISQ_NSS_IS11_NSK_INSN_ISV_NSW_IA6_cEELl0EEEEEEELl2EEEEENSK_INSU_IS11_NSK_INSN_INSP_8equal_toES1D_Ll2EEEEES1M_NSK_INSU_IS11_S1P_S1M_NSK_INSU_IS11_S1P_S1M_NSK_INSU_IS11_S1P_NSK_INSN_ISQ_NSS_IS11_NSK_INSN_ISV_NSW_IA8_cEELl0EEEEEEELl2EEEEENSK_INSN_ISQ_NSS_IS11_NSK_INSN_ISV_NSW_IA11_cEELl0EEEEEEELl2EEEEEEEEEEEEEEEEEEEEEEEEENS_10posix_time5ptimeES16_NS3_IFvRSE_RKS2F_EEEEEEENSK_INSN_ISV_NSW_IA2_cEELl0EEEEEEELl2EEEEES19_EELl2EEEEES2Q_EELl2EEEEENSK_INSN_ISV_NSW_IA3_cEELl0EEEEEEELl2EEEEENS13_INSt7__cxx1112basic_stringIcSC_SD_EES16_NS7_3tag8smessageESK_EEEELl2EEEEENSK_INSN_ISV_NSW_IA5_cEELl0EEEEEEELl2EEEEEE10clone_implEPKv@Base 1.4.10
 _ZN5boost3log11v2_mt_posix3aux14light_functionIFvRKNS1_11record_viewENS1_11expressions3aux10stream_refINS1_24basic_formatting_ostreamIcSt11char_traitsIcESaIcEEEEEEE4implINS_7phoenix5actorINS_5proto7exprns_10basic_exprINSL_6tagns_3tag10shift_leftENSL_7argsns_5list2INSK_INSN_ISQ_NSS_INSK_INSN_ISQ_NSS_INSK_INSN_ISQ_NSS_INSK_INSN_ISQ_NSS_INSK_INSN_ISQ_NSS_INSK_INS8_25attribute_output_terminalINSK_INS8_23if_else_output_terminalINSK_INSN_INSP_8terminalENSR_4termINSJ_8argumentILi2EEEEELl0EEEEENSK_INSN_INSP_10less_equalENSS_INS7_15attribute_actorINS1_7trivial14severity_levelENS1_16fallback_to_noneENS14_3tag8severityESK_EENSK_INSN_ISV_NSW_IS15_EELl0EEEEEEELl2EEEEENSK_INSN_ISQ_NSS_IS11_NSK_INSN_ISV_NSW_IA6_cEELl0EEEEEEELl2EEEEENSK_INSU_IS11_NSK_INSN_INSP_8equal_toES1D_Ll2EEEEES1M_NSK_INSU_IS11_S1P_S1M_NSK_INSU_IS11_S1P_S1M_NSK_INSU_IS11_S1P_NSK_INSN_ISQ_NSS_IS11_NSK_INSN_ISV_NSW_IA8_cEELl0EEEEEEELl2EEEEENSK_INSN_ISQ_NSS_IS11_NSK_INSN_ISV_NSW_IA11_cEELl0EEEEEEELl2EEEEEEEEEEEEEEEEEEEEEEEEENS_10posix_time5ptimeES16_NS3_IFvRSE_RKS2F_EEEEEEENSK_INSN_ISV_NSW_IA2_cEELl0EEEEEEELl2EEEEES19_EELl2EEEEES2Q_EELl2EEEEENSK_INSN_ISV_NSW_IA3_cEELl0EEEEEEELl2EEEEENS13_INSt7__cxx1112basic_stringIcSC_SD_EES16_NS7_3tag8smessageESK_EEEELl2EEEEENSK_INSN_ISV_NSW_IA5_cEELl0EEEEEEELl2EEEEEE11invoke_implEPvS6_SF_@Base 1.4.10
 _ZN5boost3log11v2_mt_posix3aux14light_functionIFvRKNS1_11record_viewENS1_11expressions3aux10stream_refINS1_24basic_formatting_ostreamIcSt11char_traitsIcESaIcEEEEEEE4implINS_7phoenix5actorINS_5proto7exprns_10basic_exprINSL_6tagns_3tag10shift_leftENSL_7argsns_5list2INSK_INSN_ISQ_NSS_INSK_INSN_ISQ_NSS_INSK_INSN_ISQ_NSS_INSK_INSN_ISQ_NSS_INSK_INSN_ISQ_NSS_INSK_INS8_25attribute_output_terminalINSK_INS8_23if_else_output_terminalINSK_INSN_INSP_8terminalENSR_4termINSJ_8argumentILi2EEEEELl0EEEEENSK_INSN_INSP_10less_equalENSS_INS7_15attribute_actorINS1_7trivial14severity_levelENS1_16fallback_to_noneENS14_3tag8severityESK_EENSK_INSN_ISV_NSW_IS15_EELl0EEEEEEELl2EEEEENSK_INSN_ISQ_NSS_IS11_NSK_INSN_ISV_NSW_IA6_cEELl0EEEEEEELl2EEEEENSK_INSU_IS11_NSK_INSN_INSP_8equal_toES1D_Ll2EEEEES1M_NSK_INSU_IS11_S1P_S1M_NSK_INSU_IS11_S1P_S1M_NSK_INSU_IS11_S1P_NSK_INSN_ISQ_NSS_IS11_NSK_INSN_ISV_NSW_IA8_cEELl0EEEEEEELl2EEEEENSK_INSN_ISQ_NSS_IS11_NSK_INSN_ISV_NSW_IA11_cEELl0EEEEEEELl2EEEEEEEEEEEEEEEEEEEEEEEEENS_10posix_time5ptimeES16_NS3_IFvRSE_RKS2F_EEEEEEENSK_INSN_ISV_NSW_IA2_cEELl0EEEEEEELl2EEEEES19_EELl2EEEEES2Q_EELl2EEEEENSK_INSN_ISV_NSW_IA3_cEELl0EEEEEEELl2EEEEENS13_INSt7__cxx1112basic_stringIcSC_SD_EES16_NS7_3tag8smessageESK_EEEELl2EEEEENSK_INSN_ISV_NSW_IA5_cEELl0EEEEEEELl2EEEEEE12destroy_implEPv@Base 1.4.10
 _ZN5boost3log11v2_mt_posix3aux14light_functionIFvRNS1_24basic_formatting_ostreamIcSt11char_traitsIcESaIcEEERKNS_10posix_time5ptimeEEE4implINS1_11expressions3aux41date_time_formatter_generator_traits_implISB_cE9formatterEE10clone_implEPKv@Base 1.4.10
 _ZN5boost3log11v2_mt_posix3aux14light_functionIFvRNS1_24basic_formatting_ostreamIcSt11char_traitsIcESaIcEEERKNS_10posix_time5ptimeEEE4implINS1_11expressions3aux41date_time_formatter_generator_traits_implISB_cE9formatterEE11invoke_implEPvS9_SD_@Base 1.4.10
 _ZN5boost3log11v2_mt_posix3aux14light_functionIFvRNS1_24basic_formatting_ostreamIcSt11char_traitsIcESaIcEEERKNS_10posix_time5ptimeEEE4implINS1_11expressions3aux41date_time_formatter_generator_traits_implISB_cE9formatterEE12destroy_implEPv@Base 1.4.10
 _ZN5boost3log11v2_mt_posix3aux19date_time_formatterINS2_23decomposed_time_wrapperINS_10posix_time5ptimeEEEcE11format_signILb0EEEvRNS8_7contextE@Base 1.4.10
 _ZN5boost3log11v2_mt_posix3aux19date_time_formatterINS2_23decomposed_time_wrapperINS_10posix_time5ptimeEEEcE11format_signILb1EEEvRNS8_7contextE@Base 1.4.10
 _ZN5boost3log11v2_mt_posix3aux19date_time_formatterINS2_23decomposed_time_wrapperINS_10posix_time5ptimeEEEcE12format_am_pmILb0EEEvRNS8_7contextE@Base 1.4.10
 _ZN5boost3log11v2_mt_posix3aux19date_time_formatterINS2_23decomposed_time_wrapperINS_10posix_time5ptimeEEEcE12format_am_pmILb1EEEvRNS8_7contextE@Base 1.4.10
 _ZN5boost3log11v2_mt_posix3aux19date_time_formatterINS2_23decomposed_time_wrapperINS_10posix_time5ptimeEEEcE12format_hoursILc32EEEvRNS8_7contextE@Base 1.4.10
 _ZN5boost3log11v2_mt_posix3aux19date_time_formatterINS2_23decomposed_time_wrapperINS_10posix_time5ptimeEEEcE12format_hoursILc48EEEvRNS8_7contextE@Base 1.4.10
 _ZN5boost3log11v2_mt_posix3aux19date_time_formatterINS2_23decomposed_time_wrapperINS_10posix_time5ptimeEEEcE14format_literalERNS8_7contextE@Base 1.4.10
 _ZN5boost3log11v2_mt_posix3aux19date_time_formatterINS2_23decomposed_time_wrapperINS_10posix_time5ptimeEEEcE14format_minutesERNS8_7contextE@Base 1.4.10
 _ZN5boost3log11v2_mt_posix3aux19date_time_formatterINS2_23decomposed_time_wrapperINS_10posix_time5ptimeEEEcE14format_secondsERNS8_7contextE@Base 1.4.10
 _ZN5boost3log11v2_mt_posix3aux19date_time_formatterINS2_23decomposed_time_wrapperINS_10posix_time5ptimeEEEcE15format_hours_12ILc32EEEvRNS8_7contextE@Base 1.4.10
 _ZN5boost3log11v2_mt_posix3aux19date_time_formatterINS2_23decomposed_time_wrapperINS_10posix_time5ptimeEEEcE15format_hours_12ILc48EEEvRNS8_7contextE@Base 1.4.10
 _ZN5boost3log11v2_mt_posix3aux19date_time_formatterINS2_23decomposed_time_wrapperINS_10posix_time5ptimeEEEcE15format_week_dayERNS8_7contextE@Base 1.4.10
 _ZN5boost3log11v2_mt_posix3aux19date_time_formatterINS2_23decomposed_time_wrapperINS_10posix_time5ptimeEEEcE16format_full_yearERNS8_7contextE@Base 1.4.10
 _ZN5boost3log11v2_mt_posix3aux19date_time_formatterINS2_23decomposed_time_wrapperINS_10posix_time5ptimeEEEcE16format_month_dayILc32EEEvRNS8_7contextE@Base 1.4.10
 _ZN5boost3log11v2_mt_posix3aux19date_time_formatterINS2_23decomposed_time_wrapperINS_10posix_time5ptimeEEEcE16format_month_dayILc48EEEvRNS8_7contextE@Base 1.4.10
 _ZN5boost3log11v2_mt_posix3aux19date_time_formatterINS2_23decomposed_time_wrapperINS_10posix_time5ptimeEEEcE17format_short_yearERNS8_7contextE@Base 1.4.10
 _ZN5boost3log11v2_mt_posix3aux19date_time_formatterINS2_23decomposed_time_wrapperINS_10posix_time5ptimeEEEcE20format_numeric_monthERNS8_7contextE@Base 1.4.10
 _ZN5boost3log11v2_mt_posix3aux19date_time_formatterINS2_23decomposed_time_wrapperINS_10posix_time5ptimeEEEcE21format_through_localeILc65EEEvRNS8_7contextE@Base 1.4.10
 _ZN5boost3log11v2_mt_posix3aux19date_time_formatterINS2_23decomposed_time_wrapperINS_10posix_time5ptimeEEEcE21format_through_localeILc66EEEvRNS8_7contextE@Base 1.4.10
 _ZN5boost3log11v2_mt_posix3aux19date_time_formatterINS2_23decomposed_time_wrapperINS_10posix_time5ptimeEEEcE21format_through_localeILc97EEEvRNS8_7contextE@Base 1.4.10
 _ZN5boost3log11v2_mt_posix3aux19date_time_formatterINS2_23decomposed_time_wrapperINS_10posix_time5ptimeEEEcE21format_through_localeILc98EEEvRNS8_7contextE@Base 1.4.10
 _ZN5boost3log11v2_mt_posix3aux19date_time_formatterINS2_23decomposed_time_wrapperINS_10posix_time5ptimeEEEcE25format_fractional_secondsERNS8_7contextE@Base 1.4.10
 _ZN5boost3log11v2_mt_posix3aux22basic_ostringstreambufIcSt11char_traitsIcESaIcEE4syncEv@Base 1.4.10
 _ZN5boost3log11v2_mt_posix3aux22basic_ostringstreambufIcSt11char_traitsIcESaIcEE6xsputnEPKcl@Base 1.4.10
 _ZN5boost3log11v2_mt_posix3aux22basic_ostringstreambufIcSt11char_traitsIcESaIcEE8overflowEi@Base 1.4.10
 _ZN5boost3log11v2_mt_posix3aux22basic_ostringstreambufIcSt11char_traitsIcESaIcEED0Ev@Base 1.4.10
 _ZN5boost3log11v2_mt_posix3aux22basic_ostringstreambufIcSt11char_traitsIcESaIcEED1Ev@Base 1.4.10
 _ZN5boost3log11v2_mt_posix3aux22basic_ostringstreambufIcSt11char_traitsIcESaIcEED2Ev@Base 1.4.10
 _ZN5boost3log11v2_mt_posix3aux27date_format_parser_callbackIcE11on_iso_dateEv@Base 1.4.10
 _ZN5boost3log11v2_mt_posix3aux27date_format_parser_callbackIcE20on_extended_iso_dateEv@Base 1.4.10
 _ZN5boost3log11v2_mt_posix3aux27single_type_dispatcher_base12get_callbackEPNS1_15type_dispatcherENS_9typeindex14stl_type_indexE@Base 1.4.10
 _ZN5boost3log11v2_mt_posix3aux27time_format_parser_callbackIcE11on_iso_timeEv@Base 1.4.10
 _ZN5boost3log11v2_mt_posix3aux27time_format_parser_callbackIcE15on_default_timeEv@Base 1.4.10
 _ZN5boost3log11v2_mt_posix3aux27time_format_parser_callbackIcE20on_extended_iso_timeEv@Base 1.4.10
 _ZN5boost3log11v2_mt_posix3aux29type_sequence_dispatcher_base12get_callbackEPNS1_15type_dispatcherENS_9typeindex14stl_type_indexE@Base 1.4.10
 _ZN5boost3log11v2_mt_posix3aux32date_time_format_parser_callbackIcE14on_placeholderERKNS_14iterator_rangeIPKcEE@Base 1.4.10
 _ZN5boost3log11v2_mt_posix3aux33decomposed_time_formatter_builderINS1_11expressions3aux41date_time_formatter_generator_traits_implINS_10posix_time5ptimeEcE9formatterEcE10on_literalERKNS_14iterator_rangeIPKcEE@Base 1.4.10
 _ZN5boost3log11v2_mt_posix3aux33decomposed_time_formatter_builderINS1_11expressions3aux41date_time_formatter_generator_traits_implINS_10posix_time5ptimeEcE9formatterEcE10on_minutesEv@Base 1.4.10
 _ZN5boost3log11v2_mt_posix3aux33decomposed_time_formatter_builderINS1_11expressions3aux41date_time_formatter_generator_traits_implINS_10posix_time5ptimeEcE9formatterEcE10on_secondsEv@Base 1.4.10
 _ZN5boost3log11v2_mt_posix3aux33decomposed_time_formatter_builderINS1_11expressions3aux41date_time_formatter_generator_traits_implINS_10posix_time5ptimeEcE9formatterEcE11on_hours_12Eb@Base 1.4.10
 _ZN5boost3log11v2_mt_posix3aux33decomposed_time_formatter_builderINS1_11expressions3aux41date_time_formatter_generator_traits_implINS_10posix_time5ptimeEcE9formatterEcE12on_full_yearEv@Base 1.4.10
 _ZN5boost3log11v2_mt_posix3aux33decomposed_time_formatter_builderINS1_11expressions3aux41date_time_formatter_generator_traits_implINS_10posix_time5ptimeEcE9formatterEcE12on_month_dayEb@Base 1.4.10
 _ZN5boost3log11v2_mt_posix3aux33decomposed_time_formatter_builderINS1_11expressions3aux41date_time_formatter_generator_traits_implINS_10posix_time5ptimeEcE9formatterEcE13on_full_monthEv@Base 1.4.10
 _ZN5boost3log11v2_mt_posix3aux33decomposed_time_formatter_builderINS1_11expressions3aux41date_time_formatter_generator_traits_implINS_10posix_time5ptimeEcE9formatterEcE13on_short_yearEv@Base 1.4.10
 _ZN5boost3log11v2_mt_posix3aux33decomposed_time_formatter_builderINS1_11expressions3aux41date_time_formatter_generator_traits_implINS_10posix_time5ptimeEcE9formatterEcE14on_short_monthEv@Base 1.4.10
 _ZN5boost3log11v2_mt_posix3aux33decomposed_time_formatter_builderINS1_11expressions3aux41date_time_formatter_generator_traits_implINS_10posix_time5ptimeEcE9formatterEcE16on_duration_signEb@Base 1.4.10
 _ZN5boost3log11v2_mt_posix3aux33decomposed_time_formatter_builderINS1_11expressions3aux41date_time_formatter_generator_traits_implINS_10posix_time5ptimeEcE9formatterEcE16on_full_week_dayEv@Base 1.4.10
 _ZN5boost3log11v2_mt_posix3aux33decomposed_time_formatter_builderINS1_11expressions3aux41date_time_formatter_generator_traits_implINS_10posix_time5ptimeEcE9formatterEcE16on_iso_time_zoneEv@Base 1.4.10
 _ZN5boost3log11v2_mt_posix3aux33decomposed_time_formatter_builderINS1_11expressions3aux41date_time_formatter_generator_traits_implINS_10posix_time5ptimeEcE9formatterEcE16on_numeric_monthEv@Base 1.4.10
 _ZN5boost3log11v2_mt_posix3aux33decomposed_time_formatter_builderINS1_11expressions3aux41date_time_formatter_generator_traits_implINS_10posix_time5ptimeEcE9formatterEcE17on_short_week_dayEv@Base 1.4.10
 _ZN5boost3log11v2_mt_posix3aux33decomposed_time_formatter_builderINS1_11expressions3aux41date_time_formatter_generator_traits_implINS_10posix_time5ptimeEcE9formatterEcE19on_numeric_week_dayEv@Base 1.4.10
 _ZN5boost3log11v2_mt_posix3aux33decomposed_time_formatter_builderINS1_11expressions3aux41date_time_formatter_generator_traits_implINS_10posix_time5ptimeEcE9formatterEcE21on_fractional_secondsEv@Base 1.4.10
 _ZN5boost3log11v2_mt_posix3aux33decomposed_time_formatter_builderINS1_11expressions3aux41date_time_formatter_generator_traits_implINS_10posix_time5ptimeEcE9formatterEcE25on_extended_iso_time_zoneEv@Base 1.4.10
 _ZN5boost3log11v2_mt_posix3aux33decomposed_time_formatter_builderINS1_11expressions3aux41date_time_formatter_generator_traits_implINS_10posix_time5ptimeEcE9formatterEcE8on_am_pmEb@Base 1.4.10
 _ZN5boost3log11v2_mt_posix3aux33decomposed_time_formatter_builderINS1_11expressions3aux41date_time_formatter_generator_traits_implINS_10posix_time5ptimeEcE9formatterEcE8on_hoursEb@Base 1.4.10
 _ZN5boost3log11v2_mt_posix3aux33decomposed_time_formatter_builderINS1_11expressions3aux41date_time_formatter_generator_traits_implINS_10posix_time5ptimeEcE9formatterEcED0Ev@Base 1.4.10
 _ZN5boost3log11v2_mt_posix3aux33decomposed_time_formatter_builderINS1_11expressions3aux41date_time_formatter_generator_traits_implINS_10posix_time5ptimeEcE9formatterEcED1Ev@Base 1.4.10
 _ZN5boost3log11v2_mt_posix3aux33decomposed_time_formatter_builderINS1_11expressions3aux41date_time_formatter_generator_traits_implINS_10posix_time5ptimeEcE9formatterEcED2Ev@Base 1.4.10
 _ZN5boost3log11v2_mt_posix5sinks16synchronous_sinkINS2_26basic_text_ostream_backendIcEEE11try_consumeERKNS1_11record_viewE@Base 1.4.10
 _ZN5boost3log11v2_mt_posix5sinks16synchronous_sinkINS2_26basic_text_ostream_backendIcEEE5flushEv@Base 1.4.10
 _ZN5boost3log11v2_mt_posix5sinks16synchronous_sinkINS2_26basic_text_ostream_backendIcEEE7consumeERKNS1_11record_viewE@Base 1.4.10
 _ZN5boost3log11v2_mt_posix5sinks16synchronous_sinkINS2_26basic_text_ostream_backendIcEEEC1Ev@Base 1.4.10
 _ZN5boost3log11v2_mt_posix5sinks16synchronous_sinkINS2_26basic_text_ostream_backendIcEEEC2Ev@Base 1.4.10
 _ZN5boost3log11v2_mt_posix5sinks16synchronous_sinkINS2_26basic_text_ostream_backendIcEEED0Ev@Base 1.4.10
 _ZN5boost3log11v2_mt_posix5sinks16synchronous_sinkINS2_26basic_text_ostream_backendIcEEED1Ev@Base 1.4.10
 _ZN5boost3log11v2_mt_posix5sinks16synchronous_sinkINS2_26basic_text_ostream_backendIcEEED2Ev@Base 1.4.10
 _ZN5boost3log11v2_mt_posix5sinks19basic_sink_frontend12will_consumeERKNS1_19attribute_value_setE@Base 1.4.10
 _ZN5boost3log11v2_mt_posix5sinks30basic_formatting_sink_frontendIcE18formatting_context13cleanup_guardD1Ev@Base 1.4.10
 _ZN5boost3log11v2_mt_posix5sinks30basic_formatting_sink_frontendIcE18formatting_context13cleanup_guardD2Ev@Base 1.4.10
 _ZN5boost3log11v2_mt_posix5sinks30basic_formatting_sink_frontendIcE18formatting_contextC1EjRKSt6localeRKNS1_15basic_formatterIcEE@Base 1.4.10
 _ZN5boost3log11v2_mt_posix5sinks30basic_formatting_sink_frontendIcE18formatting_contextC2EjRKSt6localeRKNS1_15basic_formatterIcEE@Base 1.4.10
 _ZN5boost3log11v2_mt_posix5sinks30basic_formatting_sink_frontendIcED0Ev@Base 1.4.10
 _ZN5boost3log11v2_mt_posix5sinks30basic_formatting_sink_frontendIcED1Ev@Base 1.4.10
 _ZN5boost3log11v2_mt_posix5sinks30basic_formatting_sink_frontendIcED2Ev@Base 1.4.10
 _ZN5boost3log11v2_mt_posix5sinks4sink11try_consumeERKNS1_11record_viewE@Base 1.4.10
 _ZN5boost3log11v2_mt_posix7sources12basic_loggerIcNS2_18severity_logger_mtINS1_7trivial14severity_levelEEENS2_18multi_thread_modelINS1_3aux14light_rw_mutexEEEED1Ev@Base 1.4.10
 _ZN5boost3log11v2_mt_posix7sources12basic_loggerIcNS2_18severity_logger_mtINS1_7trivial14severity_levelEEENS2_18multi_thread_modelINS1_3aux14light_rw_mutexEEEED2Ev@Base 1.4.10
 _ZN5boost3log11v2_mt_posix7sources21basic_severity_loggerINS2_12basic_loggerIcNS2_18severity_logger_mtINS1_7trivial14severity_levelEEENS2_18multi_thread_modelINS1_3aux14light_rw_mutexEEEEES7_ED1Ev@Base 1.4.10
 _ZN5boost3log11v2_mt_posix7sources21basic_severity_loggerINS2_12basic_loggerIcNS2_18severity_logger_mtINS1_7trivial14severity_levelEEENS2_18multi_thread_modelINS1_3aux14light_rw_mutexEEEEES7_ED2Ev@Base 1.4.10
 _ZN5boost3log11v2_mt_posix7sources22basic_composite_loggerIcNS2_18severity_logger_mtINS1_7trivial14severity_levelEEENS2_18multi_thread_modelINS1_3aux14light_rw_mutexEEENS2_8featuresIJNS2_8severityIS6_EEEEEE11open_recordINS_9parameter3aux25tagged_argument_list_of_1INSJ_15tagged_argumentINS1_8keywords3tag8severityEKS6_EEEEEENS1_6recordERKT_@Base 1.4.10
 _ZN5boost3log11v2_mt_posix7sources3aux14severity_levelINS1_7trivial14severity_levelEE4impl18detach_from_threadEv@Base 1.4.10
 _ZN5boost3log11v2_mt_posix7sources3aux14severity_levelINS1_7trivial14severity_levelEE4impl8dispatchERNS1_15type_dispatcherE@Base 1.4.10
 _ZN5boost3log11v2_mt_posix7sources3aux14severity_levelINS1_7trivial14severity_levelEE4implD0Ev@Base 1.4.10
 _ZN5boost3log11v2_mt_posix7sources3aux14severity_levelINS1_7trivial14severity_levelEE4implD1Ev@Base 1.4.10
 _ZN5boost3log11v2_mt_posix7sources3aux14severity_levelINS1_7trivial14severity_levelEE4implD2Ev@Base 1.4.10
 _ZN5boost3log11v2_mt_posix7sources3aux16logger_singletonI8MyLoggerE16construct_loggerEv@Base 1.4.10
 _ZN5boost3log11v2_mt_posix7sources3aux16logger_singletonI8MyLoggerE3getEv@Base 1.4.10
 _ZN5boost4asio12bad_executorD0Ev@Base 1.4.10
 _ZN5boost4asio12bad_executorD1Ev@Base 1.4.10
 _ZN5boost4asio12bad_executorD2Ev@Base 1.4.10
 _ZN5boost4asio15basic_streambufISaIcEE7reserveEm@Base 1.4.10
 _ZN5boost4asio15basic_streambufISaIcEE8overflowEi@Base 1.4.10
 _ZN5boost4asio15basic_streambufISaIcEE9underflowEv@Base 1.4.10
 _ZN5boost4asio15basic_streambufISaIcEED0Ev@Base 1.4.10
 _ZN5boost4asio15basic_streambufISaIcEED1Ev@Base 1.4.10
 _ZN5boost4asio15basic_streambufISaIcEED2Ev@Base 1.4.10
 _ZN5boost4asio17execution_context7service11notify_forkENS1_10fork_eventE@Base 1.4.10
 _ZN5boost4asio17execution_contextD1Ev@Base 1.4.10
 _ZN5boost4asio17execution_contextD2Ev@Base 1.4.10
 _ZN5boost4asio20basic_deadline_timerINS_10posix_time5ptimeENS0_11time_traitsIS3_EENS0_8executorEE16expires_from_nowERKNS2_13time_durationE@Base 1.4.10
 _ZN5boost4asio21invalid_service_ownerD0Ev@Base 1.4.10
 _ZN5boost4asio21invalid_service_ownerD1Ev@Base 1.4.10
 _ZN5boost4asio21invalid_service_ownerD2Ev@Base 1.4.10
 _ZN5boost4asio22service_already_existsD0Ev@Base 1.4.10
 _ZN5boost4asio22service_already_existsD1Ev@Base 1.4.10
 _ZN5boost4asio22service_already_existsD2Ev@Base 1.4.10
 _ZN5boost4asio28asio_handler_is_continuationEz@Base 1.4.10
 _ZN5boost4asio2ip16bad_address_castD0Ev@Base 1.4.10
 _ZN5boost4asio2ip16bad_address_castD1Ev@Base 1.4.10
 _ZN5boost4asio2ip16bad_address_castD2Ev@Base 1.4.10
 _ZN5boost4asio2ip6detail8endpointC1ERKNS1_7addressEt@Base 1.4.10
 _ZN5boost4asio2ip6detail8endpointC2ERKNS1_7addressEt@Base 1.4.10
 _ZN5boost4asio2iplsIcSt11char_traitsIcEEERSt13basic_ostreamIT_T0_ES9_RKNS1_7addressE@Base 1.4.10
 _ZN5boost4asio6detail10call_stackINS1_14strand_service11strand_implEhE4top_E@Base 1.4.10
 _ZN5boost4asio6detail10call_stackINS1_14thread_contextENS1_16thread_info_baseEE4top_E@Base 1.4.10
 _ZN5boost4asio6detail10call_stackINS1_23strand_executor_service11strand_implEhE4top_E@Base 1.4.10
 _ZN5boost4asio6detail10service_idINS1_13epoll_reactorEED1Ev@Base 1.4.10
 _ZN5boost4asio6detail10service_idINS1_13epoll_reactorEED2Ev@Base 1.4.10
 _ZN5boost4asio6detail10service_idINS1_14strand_serviceEED1Ev@Base 1.4.10
 _ZN5boost4asio6detail10service_idINS1_14strand_serviceEED2Ev@Base 1.4.10
 _ZN5boost4asio6detail10service_idINS1_22deadline_timer_serviceINS0_11time_traitsINS_10posix_time5ptimeEEEEEED1Ev@Base 1.4.10
 _ZN5boost4asio6detail10service_idINS1_22deadline_timer_serviceINS0_11time_traitsINS_10posix_time5ptimeEEEEEED2Ev@Base 1.4.10
 _ZN5boost4asio6detail10service_idINS1_23reactive_socket_serviceINS0_2ip4icmpEEEED1Ev@Base 1.4.10
 _ZN5boost4asio6detail10service_idINS1_23reactive_socket_serviceINS0_2ip4icmpEEEED2Ev@Base 1.4.10
 _ZN5boost4asio6detail10service_idINS1_9schedulerEED1Ev@Base 1.4.10
 _ZN5boost4asio6detail10service_idINS1_9schedulerEED2Ev@Base 1.4.10
 _ZN5boost4asio6detail10socket_ops5closeEiRhbRNS_6system10error_codeE@Base 1.4.10
 _ZN5boost4asio6detail11executor_opINS0_8executor8functionESaIvENS1_19scheduler_operationEE11do_completeEPvPS6_RKNS_6system10error_codeEm@Base 1.4.10
 _ZN5boost4asio6detail11executor_opINS0_8executor8functionESaIvENS1_19scheduler_operationEE3ptr5resetEv@Base 1.4.10
 _ZN5boost4asio6detail11object_poolINS1_13epoll_reactor16descriptor_stateEED1Ev@Base 1.4.10
 _ZN5boost4asio6detail11object_poolINS1_13epoll_reactor16descriptor_stateEED2Ev@Base 1.4.10
 _ZN5boost4asio6detail11timer_queueINS0_11time_traitsINS_10posix_time5ptimeEEEE14get_all_timersERNS1_8op_queueINS1_19scheduler_operationEEE@Base 1.4.10
 _ZN5boost4asio6detail11timer_queueINS0_11time_traitsINS_10posix_time5ptimeEEEE16get_ready_timersERNS1_8op_queueINS1_19scheduler_operationEEE@Base 1.4.10
 _ZN5boost4asio6detail11timer_queueINS0_11time_traitsINS_10posix_time5ptimeEEEED0Ev@Base 1.4.10
 _ZN5boost4asio6detail11timer_queueINS0_11time_traitsINS_10posix_time5ptimeEEEED1Ev@Base 1.4.10
 _ZN5boost4asio6detail11timer_queueINS0_11time_traitsINS_10posix_time5ptimeEEEED2Ev@Base 1.4.10
 _ZN5boost4asio6detail11timer_queueINS1_28forwarding_posix_time_traitsEE12remove_timerERNS4_14per_timer_dataE@Base 1.4.10
 _ZN5boost4asio6detail11timer_queueINS1_28forwarding_posix_time_traitsEE14get_all_timersERNS1_8op_queueINS1_19scheduler_operationEEE@Base 1.4.10
 _ZN5boost4asio6detail11timer_queueINS1_28forwarding_posix_time_traitsEE16get_ready_timersERNS1_8op_queueINS1_19scheduler_operationEEE@Base 1.4.10
 _ZN5boost4asio6detail11timer_queueINS1_28forwarding_posix_time_traitsEED0Ev@Base 1.4.10
 _ZN5boost4asio6detail11timer_queueINS1_28forwarding_posix_time_traitsEED1Ev@Base 1.4.10
 _ZN5boost4asio6detail11timer_queueINS1_28forwarding_posix_time_traitsEED2Ev@Base 1.4.10
 _ZN5boost4asio6detail12handler_workISt5_BindIFM10TracerouteFvRKNS_6system10error_codeEEP4PingSt12_PlaceholderILi1EEEENS1_18io_object_executorINS0_8executorEEESJ_ED1Ev@Base 1.4.10
 _ZN5boost4asio6detail12handler_workISt5_BindIFM10TracerouteFvRKNS_6system10error_codeEEP4PingSt12_PlaceholderILi1EEEENS1_18io_object_executorINS0_8executorEEESJ_ED2Ev@Base 1.4.10
 _ZN5boost4asio6detail12handler_workISt5_BindIFM10TracerouteFvRKNS_6system10error_codeEEPS4_St12_PlaceholderILi1EEEENS1_18io_object_executorINS0_8executorEEESI_ED1Ev@Base 1.4.10
 _ZN5boost4asio6detail12handler_workISt5_BindIFM10TracerouteFvRKNS_6system10error_codeEEPS4_St12_PlaceholderILi1EEEENS1_18io_object_executorINS0_8executorEEESI_ED2Ev@Base 1.4.10
 _ZN5boost4asio6detail12handler_workISt5_BindIFM10TracerouteFvRKNS_6system10error_codeEmEPS4_St12_PlaceholderILi1EESC_ILi2EEEENS1_18io_object_executorINS0_8executorEEESJ_ED1Ev@Base 1.4.10
 _ZN5boost4asio6detail12handler_workISt5_BindIFM10TracerouteFvRKNS_6system10error_codeEmEPS4_St12_PlaceholderILi1EESC_ILi2EEEENS1_18io_object_executorINS0_8executorEEESJ_ED2Ev@Base 1.4.10
 _ZN5boost4asio6detail12posix_thread4funcINS1_9scheduler15thread_functionEE3runEv@Base 1.4.10
 _ZN5boost4asio6detail12posix_thread4funcINS1_9scheduler15thread_functionEED0Ev@Base 1.4.10
 _ZN5boost4asio6detail12posix_thread4funcINS1_9scheduler15thread_functionEED1Ev@Base 1.4.10
 _ZN5boost4asio6detail12posix_thread4funcINS1_9scheduler15thread_functionEED2Ev@Base 1.4.10
 _ZN5boost4asio6detail12service_baseINS1_14strand_serviceEE2idE@Base 1.4.10
 _ZN5boost4asio6detail12wait_handlerISt5_BindIFM10TracerouteFvRKNS_6system10error_codeEEP4PingSt12_PlaceholderILi1EEEENS1_18io_object_executorINS0_8executorEEEE11do_completeEPvPNS1_19scheduler_operationES8_m@Base 1.4.10
 _ZN5boost4asio6detail12wait_handlerISt5_BindIFM10TracerouteFvRKNS_6system10error_codeEEP4PingSt12_PlaceholderILi1EEEENS1_18io_object_executorINS0_8executorEEEE3ptr5resetEv@Base 1.4.10
 _ZN5boost4asio6detail12wait_handlerISt5_BindIFM10TracerouteFvRKNS_6system10error_codeEEPS4_St12_PlaceholderILi1EEEENS1_18io_object_executorINS0_8executorEEEE11do_completeEPvPNS1_19scheduler_operationES8_m@Base 1.4.10
 _ZN5boost4asio6detail12wait_handlerISt5_BindIFM10TracerouteFvRKNS_6system10error_codeEEPS4_St12_PlaceholderILi1EEEENS1_18io_object_executorINS0_8executorEEEE3ptr5resetEv@Base 1.4.10
 _ZN5boost4asio6detail13epoll_reactor11notify_forkENS0_17execution_context10fork_eventE@Base 1.4.10
 _ZN5boost4asio6detail13epoll_reactor12cancel_timerINS0_11time_traitsINS_10posix_time5ptimeEEEEEmRNS1_11timer_queueIT_EERNSA_14per_timer_dataEm@Base 1.4.10
 _ZN5boost4asio6detail13epoll_reactor14schedule_timerINS0_11time_traitsINS_10posix_time5ptimeEEEEEvRNS1_11timer_queueIT_EERKNS9_9time_typeERNSA_14per_timer_dataEPNS1_7wait_opE@Base 1.4.10
 _ZN5boost4asio6detail13epoll_reactor15do_epoll_createEv@Base 1.4.10
 _ZN5boost4asio6detail13epoll_reactor16descriptor_state11do_completeEPvPNS1_19scheduler_operationERKNS_6system10error_codeEm@Base 1.4.10
 _ZN5boost4asio6detail13epoll_reactor3runElRNS1_8op_queueINS1_19scheduler_operationEEE@Base 1.4.10
 _ZN5boost4asio6detail13epoll_reactor8shutdownEv@Base 1.4.10
 _ZN5boost4asio6detail13epoll_reactorD0Ev@Base 1.4.10
 _ZN5boost4asio6detail13epoll_reactorD1Ev@Base 1.4.10
 _ZN5boost4asio6detail13epoll_reactorD2Ev@Base 1.4.10
 _ZN5boost4asio6detail14do_throw_errorERKNS_6system10error_codeE@Base 1.4.10
 _ZN5boost4asio6detail14do_throw_errorERKNS_6system10error_codeEPKc@Base 1.4.10
 _ZN5boost4asio6detail14io_object_implINS1_22deadline_timer_serviceINS0_11time_traitsINS_10posix_time5ptimeEEEEENS0_8executorEEC1INS0_10io_contextEEERT_PNSt9enable_ifIXsrSt14is_convertibleISE_RNS0_17execution_contextEE5valueEvE4typeE@Base 1.4.10
 _ZN5boost4asio6detail14io_object_implINS1_22deadline_timer_serviceINS0_11time_traitsINS_10posix_time5ptimeEEEEENS0_8executorEEC2INS0_10io_contextEEERT_PNSt9enable_ifIXsrSt14is_convertibleISE_RNS0_17execution_contextEE5valueEvE4typeE@Base 1.4.10
 _ZN5boost4asio6detail14io_object_implINS1_22deadline_timer_serviceINS0_11time_traitsINS_10posix_time5ptimeEEEEENS0_8executorEED1Ev@Base 1.4.10
 _ZN5boost4asio6detail14io_object_implINS1_22deadline_timer_serviceINS0_11time_traitsINS_10posix_time5ptimeEEEEENS0_8executorEED2Ev@Base 1.4.10
 _ZN5boost4asio6detail14io_object_implINS1_23reactive_socket_serviceINS0_2ip4icmpEEENS0_8executorEED1Ev@Base 1.4.10
 _ZN5boost4asio6detail14io_object_implINS1_23reactive_socket_serviceINS0_2ip4icmpEEENS0_8executorEED2Ev@Base 1.4.10
 _ZN5boost4asio6detail15keyword_tss_ptrINS1_10call_stackINS1_14thread_contextENS1_16thread_info_baseEE7contextEE6value_E@Base 1.4.10
 _ZN5boost4asio6detail16service_registry14do_use_serviceERKNS0_17execution_context7service3keyEPFPS4_PvES9_@Base 1.4.10
 _ZN5boost4asio6detail16service_registry6createINS1_13epoll_reactorENS0_17execution_contextEEEPNS5_7serviceEPv@Base 1.4.10
 _ZN5boost4asio6detail16service_registry6createINS1_22deadline_timer_serviceINS0_11time_traitsINS_10posix_time5ptimeEEEEENS0_10io_contextEEEPNS0_17execution_context7serviceEPv@Base 1.4.10
 _ZN5boost4asio6detail16service_registry6createINS1_23reactive_socket_serviceINS0_2ip4icmpEEENS0_10io_contextEEEPNS0_17execution_context7serviceEPv@Base 1.4.10
 _ZN5boost4asio6detail16service_registry6createINS1_9schedulerENS0_17execution_contextEEEPNS5_7serviceEPv@Base 1.4.10
 _ZN5boost4asio6detail17executor_functionINS1_7binder1ISt5_BindIFM10TracerouteFvRKNS_6system10error_codeEEP4PingSt12_PlaceholderILi1EEEES7_EESaIvEE11do_completeEPNS1_22executor_function_baseEb@Base 1.4.10
 _ZN5boost4asio6detail17executor_functionINS1_7binder1ISt5_BindIFM10TracerouteFvRKNS_6system10error_codeEEPS5_St12_PlaceholderILi1EEEES7_EESaIvEE11do_completeEPNS1_22executor_function_baseEb@Base 1.4.10
 _ZN5boost4asio6detail17executor_functionINS1_7binder2ISt5_BindIFM10TracerouteFvRKNS_6system10error_codeEmEPS5_St12_PlaceholderILi1EESD_ILi2EEEES7_mEESaIvEE11do_completeEPNS1_22executor_function_baseEb@Base 1.4.10
 _ZN5boost4asio6detail17posix_global_implINS0_14system_contextEE11static_ptr_E@Base 1.4.10
 _ZN5boost4asio6detail17posix_global_implINS0_14system_contextEE9instance_E@Base 1.4.10
 _ZN5boost4asio6detail17posix_global_implINS0_14system_contextEED1Ev@Base 1.4.10
 _ZN5boost4asio6detail17posix_global_implINS0_14system_contextEED2Ev@Base 1.4.10
 _ZN5boost4asio6detail18completion_handlerISt5_BindIFM10TracerouteFvvEPS4_EEE11do_completeEPvPNS1_19scheduler_operationERKNS_6system10error_codeEm@Base 1.4.10
 _ZN5boost4asio6detail22deadline_timer_serviceINS0_11time_traitsINS_10posix_time5ptimeEEEE10async_waitISt5_BindIFM10TracerouteFvRKNS_6system10error_codeEEPSA_St12_PlaceholderILi1EEEENS1_18io_object_executorINS0_8executorEEEEEvRNS7_19implementation_typeERT_RKT0_@Base 1.4.10
 _ZN5boost4asio6detail22deadline_timer_serviceINS0_11time_traitsINS_10posix_time5ptimeEEEE8shutdownEv@Base 1.4.10
 _ZN5boost4asio6detail22deadline_timer_serviceINS0_11time_traitsINS_10posix_time5ptimeEEEED0Ev@Base 1.4.10
 _ZN5boost4asio6detail22deadline_timer_serviceINS0_11time_traitsINS_10posix_time5ptimeEEEED1Ev@Base 1.4.10
 _ZN5boost4asio6detail22deadline_timer_serviceINS0_11time_traitsINS_10posix_time5ptimeEEEED2Ev@Base 1.4.10
 _ZN5boost4asio6detail23reactive_socket_serviceINS0_2ip4icmpEE8shutdownEv@Base 1.4.10
 _ZN5boost4asio6detail23reactive_socket_serviceINS0_2ip4icmpEED0Ev@Base 1.4.10
 _ZN5boost4asio6detail23reactive_socket_serviceINS0_2ip4icmpEED1Ev@Base 1.4.10
 _ZN5boost4asio6detail23reactive_socket_serviceINS0_2ip4icmpEED2Ev@Base 1.4.10
 _ZN5boost4asio6detail26eventfd_select_interrupter16open_descriptorsEv@Base 1.4.10
 _ZN5boost4asio6detail27reactive_socket_recvfrom_opINS0_17mutable_buffers_1ENS0_2ip14basic_endpointINS4_4icmpEEESt5_BindIFM10TracerouteFvRKNS_6system10error_codeEmEPS9_St12_PlaceholderILi1EESH_ILi2EEEENS1_18io_object_executorINS0_8executorEEEE11do_completeEPvPNS1_19scheduler_operationESD_m@Base 1.4.10
 _ZN5boost4asio6detail27reactive_socket_recvfrom_opINS0_17mutable_buffers_1ENS0_2ip14basic_endpointINS4_4icmpEEESt5_BindIFM10TracerouteFvRKNS_6system10error_codeEmEPS9_St12_PlaceholderILi1EESH_ILi2EEEENS1_18io_object_executorINS0_8executorEEEE3ptr5resetEv@Base 1.4.10
 _ZN5boost4asio6detail30execution_context_service_baseINS1_13epoll_reactorEE2idE@Base 1.4.10
 _ZN5boost4asio6detail30execution_context_service_baseINS1_22deadline_timer_serviceINS0_11time_traitsINS_10posix_time5ptimeEEEEEE2idE@Base 1.4.10
 _ZN5boost4asio6detail30execution_context_service_baseINS1_23reactive_socket_serviceINS0_2ip4icmpEEEE2idE@Base 1.4.10
 _ZN5boost4asio6detail30execution_context_service_baseINS1_9schedulerEE2idE@Base 1.4.10
 _ZN5boost4asio6detail32reactive_socket_recvfrom_op_baseINS0_17mutable_buffers_1ENS0_2ip14basic_endpointINS4_4icmpEEEE10do_performEPNS1_10reactor_opE@Base 1.4.10
 _ZN5boost4asio6detail7tss_ptrINS1_10call_stackINS1_14strand_service11strand_implEhE7contextEED1Ev@Base 1.4.10
 _ZN5boost4asio6detail7tss_ptrINS1_10call_stackINS1_14strand_service11strand_implEhE7contextEED2Ev@Base 1.4.10
 _ZN5boost4asio6detail7tss_ptrINS1_10call_stackINS1_14thread_contextENS1_16thread_info_baseEE7contextEED1Ev@Base 1.4.10
 _ZN5boost4asio6detail7tss_ptrINS1_10call_stackINS1_14thread_contextENS1_16thread_info_baseEE7contextEED2Ev@Base 1.4.10
 _ZN5boost4asio6detail7tss_ptrINS1_10call_stackINS1_23strand_executor_service11strand_implEhE7contextEED1Ev@Base 1.4.10
 _ZN5boost4asio6detail7tss_ptrINS1_10call_stackINS1_23strand_executor_service11strand_implEhE7contextEED2Ev@Base 1.4.10
 _ZN5boost4asio6detail8op_queueINS1_19scheduler_operationEED1Ev@Base 1.4.10
 _ZN5boost4asio6detail8op_queueINS1_19scheduler_operationEED2Ev@Base 1.4.10
 _ZN5boost4asio6detail9scheduler12task_cleanupD1Ev@Base 1.4.10
 _ZN5boost4asio6detail9scheduler12task_cleanupD2Ev@Base 1.4.10
 _ZN5boost4asio6detail9scheduler12work_cleanupD1Ev@Base 1.4.10
 _ZN5boost4asio6detail9scheduler12work_cleanupD2Ev@Base 1.4.10
 _ZN5boost4asio6detail9scheduler25post_deferred_completionsERNS1_8op_queueINS1_19scheduler_operationEEE@Base 1.4.10
 _ZN5boost4asio6detail9scheduler25post_immediate_completionEPNS1_19scheduler_operationEb@Base 1.4.10
 _ZN5boost4asio6detail9scheduler26wake_one_thread_and_unlockERNS1_27conditionally_enabled_mutex11scoped_lockE@Base 1.4.10
 _ZN5boost4asio6detail9scheduler3runERNS_6system10error_codeE@Base 1.4.10
 _ZN5boost4asio6detail9scheduler4stopEv@Base 1.4.10
 _ZN5boost4asio6detail9scheduler8shutdownEv@Base 1.4.10
 _ZN5boost4asio6detail9schedulerC1ERNS0_17execution_contextEib@Base 1.4.10
 _ZN5boost4asio6detail9schedulerC2ERNS0_17execution_contextEib@Base 1.4.10
 _ZN5boost4asio6detail9schedulerD0Ev@Base 1.4.10
 _ZN5boost4asio6detail9schedulerD1Ev@Base 1.4.10
 _ZN5boost4asio6detail9schedulerD2Ev@Base 1.4.10
 _ZN5boost4asio8executor4implINS0_10io_context13executor_typeESaIvEE15on_work_startedEv@Base 1.4.10
 _ZN5boost4asio8executor4implINS0_10io_context13executor_typeESaIvEE16on_work_finishedEv@Base 1.4.10
 _ZN5boost4asio8executor4implINS0_10io_context13executor_typeESaIvEE4postEONS1_8functionE@Base 1.4.10
 _ZN5boost4asio8executor4implINS0_10io_context13executor_typeESaIvEE5deferEONS1_8functionE@Base 1.4.10
 _ZN5boost4asio8executor4implINS0_10io_context13executor_typeESaIvEE6targetEv@Base 1.4.10
 _ZN5boost4asio8executor4implINS0_10io_context13executor_typeESaIvEE7contextEv@Base 1.4.10
 _ZN5boost4asio8executor4implINS0_10io_context13executor_typeESaIvEE7destroyEv@Base 1.4.10
 _ZN5boost4asio8executor4implINS0_10io_context13executor_typeESaIvEE8dispatchEONS1_8functionE@Base 1.4.10
 _ZN5boost4asio8executor4implINS0_10io_context13executor_typeESaIvEED0Ev@Base 1.4.10
 _ZN5boost4asio8executor4implINS0_10io_context13executor_typeESaIvEED1Ev@Base 1.4.10
 _ZN5boost4asio8executor4implINS0_10io_context13executor_typeESaIvEED2Ev@Base 1.4.10
 _ZN5boost5uuids6detail4sha113process_blockEv@Base 1.4.10
 _ZN5boost6detail15sp_counted_base7destroyEv@Base 1.4.10
 _ZN5boost6detail15sp_counted_base7releaseEv@Base 1.4.10
 _ZN5boost6detail17sp_counted_impl_pINS_3log11v2_mt_posix5sinks16synchronous_sinkINS4_26basic_text_ostream_backendIcEEEEE11get_deleterERKSt9type_info@Base 1.4.10
 _ZN5boost6detail17sp_counted_impl_pINS_3log11v2_mt_posix5sinks16synchronous_sinkINS4_26basic_text_ostream_backendIcEEEEE17get_local_deleterERKSt9type_info@Base 1.4.10
 _ZN5boost6detail17sp_counted_impl_pINS_3log11v2_mt_posix5sinks16synchronous_sinkINS4_26basic_text_ostream_backendIcEEEEE19get_untyped_deleterEv@Base 1.4.10
 _ZN5boost6detail17sp_counted_impl_pINS_3log11v2_mt_posix5sinks16synchronous_sinkINS4_26basic_text_ostream_backendIcEEEEE7disposeEv@Base 1.4.10
 _ZN5boost6detail17sp_counted_impl_pINS_3log11v2_mt_posix5sinks16synchronous_sinkINS4_26basic_text_ostream_backendIcEEEEED0Ev@Base 1.4.10
 _ZN5boost6detail17sp_counted_impl_pINS_3log11v2_mt_posix5sinks16synchronous_sinkINS4_26basic_text_ostream_backendIcEEEEED1Ev@Base 1.4.10
 _ZN5boost6detail17sp_counted_impl_pINS_3log11v2_mt_posix5sinks16synchronous_sinkINS4_26basic_text_ostream_backendIcEEEEED2Ev@Base 1.4.10
 _ZN5boost6detail17sp_counted_impl_pINS_9iostreams16symmetric_filterINS2_6detail20zlib_compressor_implISaIcEEES6_E4implEE11get_deleterERKSt9type_info@Base 1.4.10
 _ZN5boost6detail17sp_counted_impl_pINS_9iostreams16symmetric_filterINS2_6detail20zlib_compressor_implISaIcEEES6_E4implEE17get_local_deleterERKSt9type_info@Base 1.4.10
 _ZN5boost6detail17sp_counted_impl_pINS_9iostreams16symmetric_filterINS2_6detail20zlib_compressor_implISaIcEEES6_E4implEE19get_untyped_deleterEv@Base 1.4.10
 _ZN5boost6detail17sp_counted_impl_pINS_9iostreams16symmetric_filterINS2_6detail20zlib_compressor_implISaIcEEES6_E4implEE7disposeEv@Base 1.4.10
 _ZN5boost6detail17sp_counted_impl_pINS_9iostreams16symmetric_filterINS2_6detail20zlib_compressor_implISaIcEEES6_E4implEED0Ev@Base 1.4.10
 _ZN5boost6detail17sp_counted_impl_pINS_9iostreams16symmetric_filterINS2_6detail20zlib_compressor_implISaIcEEES6_E4implEED1Ev@Base 1.4.10
 _ZN5boost6detail17sp_counted_impl_pINS_9iostreams16symmetric_filterINS2_6detail20zlib_compressor_implISaIcEEES6_E4implEED2Ev@Base 1.4.10
 _ZN5boost6detail17sp_counted_impl_pINS_9iostreams16symmetric_filterINS2_6detail21bzip2_compressor_implISaIcEEES6_E4implEE11get_deleterERKSt9type_info@Base 1.4.10
 _ZN5boost6detail17sp_counted_impl_pINS_9iostreams16symmetric_filterINS2_6detail21bzip2_compressor_implISaIcEEES6_E4implEE17get_local_deleterERKSt9type_info@Base 1.4.10
 _ZN5boost6detail17sp_counted_impl_pINS_9iostreams16symmetric_filterINS2_6detail21bzip2_compressor_implISaIcEEES6_E4implEE19get_untyped_deleterEv@Base 1.4.10
 _ZN5boost6detail17sp_counted_impl_pINS_9iostreams16symmetric_filterINS2_6detail21bzip2_compressor_implISaIcEEES6_E4implEE7disposeEv@Base 1.4.10
 _ZN5boost6detail17sp_counted_impl_pINS_9iostreams16symmetric_filterINS2_6detail21bzip2_compressor_implISaIcEEES6_E4implEED0Ev@Base 1.4.10
 _ZN5boost6detail17sp_counted_impl_pINS_9iostreams16symmetric_filterINS2_6detail21bzip2_compressor_implISaIcEEES6_E4implEED1Ev@Base 1.4.10
 _ZN5boost6detail17sp_counted_impl_pINS_9iostreams16symmetric_filterINS2_6detail21bzip2_compressor_implISaIcEEES6_E4implEED2Ev@Base 1.4.10
 _ZN5boost6detail17sp_counted_impl_pINS_9iostreams6detail10chain_baseINS2_5chainINS2_6outputEcSt11char_traitsIcESaIcEEEcS8_S9_S6_E10chain_implEE11get_deleterERKSt9type_info@Base 1.4.10
 _ZN5boost6detail17sp_counted_impl_pINS_9iostreams6detail10chain_baseINS2_5chainINS2_6outputEcSt11char_traitsIcESaIcEEEcS8_S9_S6_E10chain_implEE17get_local_deleterERKSt9type_info@Base 1.4.10
 _ZN5boost6detail17sp_counted_impl_pINS_9iostreams6detail10chain_baseINS2_5chainINS2_6outputEcSt11char_traitsIcESaIcEEEcS8_S9_S6_E10chain_implEE19get_untyped_deleterEv@Base 1.4.10
 _ZN5boost6detail17sp_counted_impl_pINS_9iostreams6detail10chain_baseINS2_5chainINS2_6outputEcSt11char_traitsIcESaIcEEEcS8_S9_S6_E10chain_implEE7disposeEv@Base 1.4.10
 _ZN5boost6detail17sp_counted_impl_pINS_9iostreams6detail10chain_baseINS2_5chainINS2_6outputEcSt11char_traitsIcESaIcEEEcS8_S9_S6_E10chain_implEED0Ev@Base 1.4.10
 _ZN5boost6detail17sp_counted_impl_pINS_9iostreams6detail10chain_baseINS2_5chainINS2_6outputEcSt11char_traitsIcESaIcEEEcS8_S9_S6_E10chain_implEED1Ev@Base 1.4.10
 _ZN5boost6detail17sp_counted_impl_pINS_9iostreams6detail10chain_baseINS2_5chainINS2_6outputEcSt11char_traitsIcESaIcEEEcS8_S9_S6_E10chain_implEED2Ev@Base 1.4.10
 _ZN5boost6detail18sp_counted_impl_pdIPNS_2io18basic_altstringbufIcSt11char_traitsIcESaIcEEENS2_22basic_oaltstringstreamIcS5_S6_E5No_OpEE11get_deleterERKSt9type_info@Base 1.4.10
 _ZN5boost6detail18sp_counted_impl_pdIPNS_2io18basic_altstringbufIcSt11char_traitsIcESaIcEEENS2_22basic_oaltstringstreamIcS5_S6_E5No_OpEE17get_local_deleterERKSt9type_info@Base 1.4.10
 _ZN5boost6detail18sp_counted_impl_pdIPNS_2io18basic_altstringbufIcSt11char_traitsIcESaIcEEENS2_22basic_oaltstringstreamIcS5_S6_E5No_OpEE19get_untyped_deleterEv@Base 1.4.10
 _ZN5boost6detail18sp_counted_impl_pdIPNS_2io18basic_altstringbufIcSt11char_traitsIcESaIcEEENS2_22basic_oaltstringstreamIcS5_S6_E5No_OpEE7disposeEv@Base 1.4.10
 _ZN5boost6detail18sp_counted_impl_pdIPNS_2io18basic_altstringbufIcSt11char_traitsIcESaIcEEENS2_22basic_oaltstringstreamIcS5_S6_E5No_OpEED0Ev@Base 1.4.10
 _ZN5boost6detail18sp_counted_impl_pdIPNS_2io18basic_altstringbufIcSt11char_traitsIcESaIcEEENS2_22basic_oaltstringstreamIcS5_S6_E5No_OpEED1Ev@Base 1.4.10
 _ZN5boost6detail18sp_counted_impl_pdIPNS_2io18basic_altstringbufIcSt11char_traitsIcESaIcEEENS2_22basic_oaltstringstreamIcS5_S6_E5No_OpEED2Ev@Base 1.4.10
 _ZN5boost6detail18sp_counted_impl_pdIPNS_3log11v2_mt_posix5sinks26basic_text_ostream_backendIcEENS0_13sp_ms_deleterIS6_EEE11get_deleterERKSt9type_info@Base 1.4.10
 _ZN5boost6detail18sp_counted_impl_pdIPNS_3log11v2_mt_posix5sinks26basic_text_ostream_backendIcEENS0_13sp_ms_deleterIS6_EEE17get_local_deleterERKSt9type_info@Base 1.4.10
 _ZN5boost6detail18sp_counted_impl_pdIPNS_3log11v2_mt_posix5sinks26basic_text_ostream_backendIcEENS0_13sp_ms_deleterIS6_EEE19get_untyped_deleterEv@Base 1.4.10
 _ZN5boost6detail18sp_counted_impl_pdIPNS_3log11v2_mt_posix5sinks26basic_text_ostream_backendIcEENS0_13sp_ms_deleterIS6_EEE7disposeEv@Base 1.4.10
 _ZN5boost6detail18sp_counted_impl_pdIPNS_3log11v2_mt_posix5sinks26basic_text_ostream_backendIcEENS0_13sp_ms_deleterIS6_EEED0Ev@Base 1.4.10
 _ZN5boost6detail18sp_counted_impl_pdIPNS_3log11v2_mt_posix5sinks26basic_text_ostream_backendIcEENS0_13sp_ms_deleterIS6_EEED1Ev@Base 1.4.10
 _ZN5boost6detail18sp_counted_impl_pdIPNS_3log11v2_mt_posix5sinks26basic_text_ostream_backendIcEENS0_13sp_ms_deleterIS6_EEED2Ev@Base 1.4.10
 _ZN5boost6detail18sp_counted_impl_pdIPNS_3log11v2_mt_posix7sources3aux13logger_holderINS4_18severity_logger_mtINS3_7trivial14severity_levelEEEEENS0_13sp_ms_deleterISB_EEE11get_deleterERKSt9type_info@Base 1.4.10
 _ZN5boost6detail18sp_counted_impl_pdIPNS_3log11v2_mt_posix7sources3aux13logger_holderINS4_18severity_logger_mtINS3_7trivial14severity_levelEEEEENS0_13sp_ms_deleterISB_EEE17get_local_deleterERKSt9type_info@Base 1.4.10
 _ZN5boost6detail18sp_counted_impl_pdIPNS_3log11v2_mt_posix7sources3aux13logger_holderINS4_18severity_logger_mtINS3_7trivial14severity_levelEEEEENS0_13sp_ms_deleterISB_EEE19get_untyped_deleterEv@Base 1.4.10
 _ZN5boost6detail18sp_counted_impl_pdIPNS_3log11v2_mt_posix7sources3aux13logger_holderINS4_18severity_logger_mtINS3_7trivial14severity_levelEEEEENS0_13sp_ms_deleterISB_EEE7disposeEv@Base 1.4.10
 _ZN5boost6detail18sp_counted_impl_pdIPNS_3log11v2_mt_posix7sources3aux13logger_holderINS4_18severity_logger_mtINS3_7trivial14severity_levelEEEEENS0_13sp_ms_deleterISB_EEED0Ev@Base 1.4.10
 _ZN5boost6detail18sp_counted_impl_pdIPNS_3log11v2_mt_posix7sources3aux13logger_holderINS4_18severity_logger_mtINS3_7trivial14severity_levelEEEEENS0_13sp_ms_deleterISB_EEED1Ev@Base 1.4.10
 _ZN5boost6detail18sp_counted_impl_pdIPNS_3log11v2_mt_posix7sources3aux13logger_holderINS4_18severity_logger_mtINS3_7trivial14severity_levelEEEEENS0_13sp_ms_deleterISB_EEED2Ev@Base 1.4.10
 _ZN5boost6detail18sp_counted_impl_pdIPSoNS_12null_deleterEE11get_deleterERKSt9type_info@Base 1.4.10
 _ZN5boost6detail18sp_counted_impl_pdIPSoNS_12null_deleterEE17get_local_deleterERKSt9type_info@Base 1.4.10
 _ZN5boost6detail18sp_counted_impl_pdIPSoNS_12null_deleterEE19get_untyped_deleterEv@Base 1.4.10
 _ZN5boost6detail18sp_counted_impl_pdIPSoNS_12null_deleterEE7disposeEv@Base 1.4.10
 _ZN5boost6detail18sp_counted_impl_pdIPSoNS_12null_deleterEED0Ev@Base 1.4.10
 _ZN5boost6detail18sp_counted_impl_pdIPSoNS_12null_deleterEED1Ev@Base 1.4.10
 _ZN5boost6detail18sp_counted_impl_pdIPSoNS_12null_deleterEED2Ev@Base 1.4.10
 _ZN5boost6detail8function15functor_managerINS_9algorithm6detail13token_finderFINS4_10is_any_ofFIcEEEEE6manageERKNS1_15function_bufferERSA_NS1_30functor_manager_operation_typeE@Base 1.4.10
 _ZN5boost6detail8function16has_empty_targetEz@Base 1.4.10
 _ZN5boost6detail8function21function_obj_invoker2INS_9algorithm6detail13token_finderFINS4_10is_any_ofFIcEEEENS_14iterator_rangeIN9__gnu_cxx17__normal_iteratorIPKcNSt7__cxx1112basic_stringIcSt11char_traitsIcESaIcEEEEEEESK_SK_E6invokeERNS1_15function_bufferESK_SK_@Base 1.4.10
 _ZN5boost6system12system_errorD0Ev@Base 1.4.10
 _ZN5boost6system12system_errorD1Ev@Base 1.4.10
 _ZN5boost6system12system_errorD2Ev@Base 1.4.10
 _ZN5boost6system6detail10cat_holderIvE24system_category_instanceE@Base 1.4.10
 _ZN5boost6system6detail10cat_holderIvE25generic_category_instanceE@Base 1.4.10
 _ZN5boost6system6detail12std_categoryD0Ev@Base 1.4.10
 _ZN5boost6system6detail12std_categoryD1Ev@Base 1.4.10
 _ZN5boost6system6detail12std_categoryD2Ev@Base 1.4.10
 _ZN5boost6system6detail15to_std_categoryERKNS0_14error_categoryE@Base 1.4.10
 _ZN5boost9algorithm10iter_splitISt6vectorINSt7__cxx1112basic_stringIcSt11char_traitsIcESaIcEEESaIS8_EERKS8_NS0_6detail13token_finderFINSD_10is_any_ofFIcEEEEEERT_SJ_OT0_T1_@Base 1.4.10
 _ZN5boost9date_time14microsec_clockINS_10posix_time5ptimeEE11create_timeEPFP2tmPKlS6_E@Base 1.4.10
 _ZN5boost9date_time19counted_time_systemINS0_16counted_time_repINS_10posix_time33millisec_posix_time_system_configEEEE14subtract_timesERKS5_S8_@Base 1.4.10
 _ZN5boost9date_time23gregorian_calendar_baseINS0_19year_month_day_baseINS_9gregorian9greg_yearENS3_10greg_monthENS3_8greg_dayEEEjE15from_day_numberEj@Base 1.4.10
 _ZN5boost9date_time6c_time6gmtimeEPKlP2tm@Base 1.4.10
 _ZN5boost9gregorian16bad_day_of_monthD0Ev@Base 1.4.10
 _ZN5boost9gregorian16bad_day_of_monthD1Ev@Base 1.4.10
 _ZN5boost9gregorian16bad_day_of_monthD2Ev@Base 1.4.10
 _ZN5boost9gregorian4dateC1ENS0_9greg_yearENS0_10greg_monthENS0_8greg_dayE@Base 1.4.10
 _ZN5boost9gregorian4dateC1ENS_9date_time14special_valuesE@Base 1.4.10
 _ZN5boost9gregorian4dateC2ENS0_9greg_yearENS0_10greg_monthENS0_8greg_dayE@Base 1.4.10
 _ZN5boost9gregorian4dateC2ENS_9date_time14special_valuesE@Base 1.4.10
 _ZN5boost9gregorian8bad_yearD0Ev@Base 1.4.10
 _ZN5boost9gregorian8bad_yearD1Ev@Base 1.4.10
 _ZN5boost9gregorian8bad_yearD2Ev@Base 1.4.10
 _ZN5boost9gregorian9bad_monthD0Ev@Base 1.4.10
 _ZN5boost9gregorian9bad_monthD1Ev@Base 1.4.10
 _ZN5boost9gregorian9bad_monthD2Ev@Base 1.4.10
 _ZN5boost9iostreams11gzip_paramsD1Ev@Base 1.4.10
 _ZN5boost9iostreams11gzip_paramsD2Ev@Base 1.4.10
 _ZN5boost9iostreams13stream_bufferINS0_17basic_null_deviceIcNS0_6outputEEESt11char_traitsIcESaIcES3_ED0Ev@Base 1.4.10
 _ZN5boost9iostreams13stream_bufferINS0_17basic_null_deviceIcNS0_6outputEEESt11char_traitsIcESaIcES3_ED1Ev@Base 1.4.10
 _ZN5boost9iostreams13stream_bufferINS0_17basic_null_deviceIcNS0_6outputEEESt11char_traitsIcESaIcES3_ED2Ev@Base 1.4.10
 _ZN5boost9iostreams13stream_bufferINS0_21basic_gzip_compressorISaIcEEESt11char_traitsIcES3_NS0_6outputEED0Ev@Base 1.4.10
 _ZN5boost9iostreams13stream_bufferINS0_21basic_gzip_compressorISaIcEEESt11char_traitsIcES3_NS0_6outputEED1Ev@Base 1.4.10
 _ZN5boost9iostreams13stream_bufferINS0_21basic_gzip_compressorISaIcEEESt11char_traitsIcES3_NS0_6outputEED2Ev@Base 1.4.10
 _ZN5boost9iostreams13stream_bufferINS0_22basic_bzip2_compressorISaIcEEESt11char_traitsIcES3_NS0_6outputEED0Ev@Base 1.4.10
 _ZN5boost9iostreams13stream_bufferINS0_22basic_bzip2_compressorISaIcEEESt11char_traitsIcES3_NS0_6outputEED1Ev@Base 1.4.10
 _ZN5boost9iostreams13stream_bufferINS0_22basic_bzip2_compressorISaIcEEESt11char_traitsIcES3_NS0_6outputEED2Ev@Base 1.4.10
 _ZN5boost9iostreams13stream_bufferINS0_6detail12mode_adapterINS0_6outputESoEESt11char_traitsIcESaIcES4_ED0Ev@Base 1.4.10
 _ZN5boost9iostreams13stream_bufferINS0_6detail12mode_adapterINS0_6outputESoEESt11char_traitsIcESaIcES4_ED1Ev@Base 1.4.10
 _ZN5boost9iostreams13stream_bufferINS0_6detail12mode_adapterINS0_6outputESoEESt11char_traitsIcESaIcES4_ED2Ev@Base 1.4.10
 _ZN5boost9iostreams14access_controlINS0_6detail12chain_clientINS0_5chainINS0_6outputEcSt11char_traitsIcESaIcEEEEENS0_7public_ENS2_4pub_ISA_EEED0Ev@Base 1.4.10
 _ZN5boost9iostreams14access_controlINS0_6detail12chain_clientINS0_5chainINS0_6outputEcSt11char_traitsIcESaIcEEEEENS0_7public_ENS2_4pub_ISA_EEED1Ev@Base 1.4.10
 _ZN5boost9iostreams14access_controlINS0_6detail12chain_clientINS0_5chainINS0_6outputEcSt11char_traitsIcESaIcEEEEENS0_7public_ENS2_4pub_ISA_EEED2Ev@Base 1.4.10
 _ZN5boost9iostreams16filtering_streamINS0_6outputEcSt11char_traitsIcESaIcENS0_7public_EED0Ev@Base 1.4.10
 _ZN5boost9iostreams16filtering_streamINS0_6outputEcSt11char_traitsIcESaIcENS0_7public_EED1Ev@Base 1.4.10
 _ZN5boost9iostreams16symmetric_filterINS0_6detail20zlib_compressor_implISaIcEEES4_E10close_implEv@Base 1.4.10
 _ZN5boost9iostreams16symmetric_filterINS0_6detail20zlib_compressor_implISaIcEEES4_E11begin_writeEv@Base 1.4.10
 _ZN5boost9iostreams16symmetric_filterINS0_6detail20zlib_compressor_implISaIcEEES4_E4readINS2_16linked_streambufIcSt11char_traitsIcEEEEElRT_Pcl@Base 1.4.10
 _ZN5boost9iostreams16symmetric_filterINS0_6detail20zlib_compressor_implISaIcEEES4_E5flushINS0_20non_blocking_adapterINS2_16linked_streambufIcSt11char_traitsIcEEEEEEEbRT_N4mpl_5bool_ILb1EEE@Base 1.4.10
 _ZN5boost9iostreams16symmetric_filterINS0_6detail21bzip2_compressor_implISaIcEEES4_E10close_implEv@Base 1.4.10
 _ZN5boost9iostreams16symmetric_filterINS0_6detail21bzip2_compressor_implISaIcEEES4_E11begin_writeEv@Base 1.4.10
 _ZN5boost9iostreams16symmetric_filterINS0_6detail21bzip2_compressor_implISaIcEEES4_E5closeINS0_20non_blocking_adapterINS2_16linked_streambufIcSt11char_traitsIcEEEEEEEvRT_St13_Ios_Openmode@Base 1.4.10
 _ZN5boost9iostreams16symmetric_filterINS0_6detail21bzip2_compressor_implISaIcEEES4_E5writeINS2_16linked_streambufIcSt11char_traitsIcEEEEElRT_PKcl@Base 1.4.10
 _ZN5boost9iostreams21basic_gzip_compressorISaIcEE10write_longINS0_18back_insert_deviceINSt7__cxx1112basic_stringIcSt11char_traitsIcES2_EEEEEEvlRT_N4mpl_5bool_ILb1EEE@Base 1.4.10
 _ZN5boost9iostreams21basic_gzip_compressorISaIcEE11read_stringEPclRNSt7__cxx1112basic_stringIcSt11char_traitsIcES2_EE@Base 1.4.10
 _ZN5boost9iostreams21basic_gzip_compressorISaIcEE5closeINS0_20non_blocking_adapterINS0_6detail16linked_streambufIcSt11char_traitsIcEEEEEEEvRT_St13_Ios_Openmode@Base 1.4.10
 _ZN5boost9iostreams21basic_gzip_compressorISaIcEEC1ERKNS0_11gzip_paramsEl@Base 1.4.10
 _ZN5boost9iostreams21basic_gzip_compressorISaIcEEC1ERKS3_@Base 1.4.10
 _ZN5boost9iostreams21basic_gzip_compressorISaIcEEC2ERKNS0_11gzip_paramsEl@Base 1.4.10
 _ZN5boost9iostreams21basic_gzip_compressorISaIcEEC2ERKS3_@Base 1.4.10
 _ZN5boost9iostreams21basic_gzip_compressorISaIcEED1Ev@Base 1.4.10
 _ZN5boost9iostreams21basic_gzip_compressorISaIcEED2Ev@Base 1.4.10
 _ZN5boost9iostreams3putINS0_20non_blocking_adapterINS0_6detail16linked_streambufIcSt11char_traitsIcEEEEEEEbRT_NS0_12char_type_ofIS9_E4typeE@Base 1.4.10
 _ZN5boost9iostreams6detail10chain_baseINS0_5chainINS0_6outputEcSt11char_traitsIcESaIcEEEcS6_S7_S4_E10chain_impl5closeEv@Base 1.4.10
 _ZN5boost9iostreams6detail11bad_putbackB5cxx11Ev@Base 1.4.10
 _ZN5boost9iostreams6detail11execute_allINS1_22member_close_operationINS1_16linked_streambufIcSt11char_traitsIcEEEEES8_EENS1_14execute_traitsIT_NS_9result_ofIFSA_vEE4typeEE11result_typeESA_T0_@Base 1.4.10
 _ZN5boost9iostreams6detail12chain_clientINS0_5chainINS0_6outputEcSt11char_traitsIcESaIcEEEE6notifyEv@Base 1.4.10
 _ZN5boost9iostreams6detail15execute_foreachISt14_List_iteratorIPNS1_16linked_streambufIcSt11char_traitsIcEEEENS1_10chain_baseINS0_5chainINS0_6outputEcS6_SaIcEEEcS6_SD_SC_E6closerEEET0_T_SI_SH_@Base 1.4.10
 _ZN5boost9iostreams6detail15execute_foreachISt16reverse_iteratorISt14_List_iteratorIPNS1_16linked_streambufIcSt11char_traitsIcEEEEENS1_10chain_baseINS0_5chainINS0_6outputEcS7_SaIcEEEcS7_SF_SE_E6closerEEET0_T_SK_SJ_@Base 1.4.10
 _ZN5boost9iostreams6detail18indirect_streambufINS0_17basic_null_deviceIcNS0_6outputEEESt11char_traitsIcESaIcES4_E10close_implESt13_Ios_Openmode@Base 1.4.10
 _ZN5boost9iostreams6detail18indirect_streambufINS0_17basic_null_deviceIcNS0_6outputEEESt11char_traitsIcESaIcES4_E11strict_syncEv@Base 1.4.10
 _ZN5boost9iostreams6detail18indirect_streambufINS0_17basic_null_deviceIcNS0_6outputEEESt11char_traitsIcESaIcES4_E13init_get_areaEv@Base 1.4.10
 _ZN5boost9iostreams6detail18indirect_streambufINS0_17basic_null_deviceIcNS0_6outputEEESt11char_traitsIcESaIcES4_E13init_put_areaEv@Base 1.4.10
 _ZN5boost9iostreams6detail18indirect_streambufINS0_17basic_null_deviceIcNS0_6outputEEESt11char_traitsIcESaIcES4_E14component_implEv@Base 1.4.10
 _ZN5boost9iostreams6detail18indirect_streambufINS0_17basic_null_deviceIcNS0_6outputEEESt11char_traitsIcESaIcES4_E14set_auto_closeEb@Base 1.4.10
 _ZN5boost9iostreams6detail18indirect_streambufINS0_17basic_null_deviceIcNS0_6outputEEESt11char_traitsIcESaIcES4_E4syncEv@Base 1.4.10
 _ZN5boost9iostreams6detail18indirect_streambufINS0_17basic_null_deviceIcNS0_6outputEEESt11char_traitsIcESaIcES4_E5closeEv@Base 1.4.10
 _ZN5boost9iostreams6detail18indirect_streambufINS0_17basic_null_deviceIcNS0_6outputEEESt11char_traitsIcESaIcES4_E5imbueERKSt6locale@Base 1.4.10
 _ZN5boost9iostreams6detail18indirect_streambufINS0_17basic_null_deviceIcNS0_6outputEEESt11char_traitsIcESaIcES4_E7seekoffElSt12_Ios_SeekdirSt13_Ios_Openmode@Base 1.4.10
 _ZN5boost9iostreams6detail18indirect_streambufINS0_17basic_null_deviceIcNS0_6outputEEESt11char_traitsIcESaIcES4_E7seekposESt4fposI11__mbstate_tESt13_Ios_Openmode@Base 1.4.10
 _ZN5boost9iostreams6detail18indirect_streambufINS0_17basic_null_deviceIcNS0_6outputEEESt11char_traitsIcESaIcES4_E8overflowEi@Base 1.4.10
 _ZN5boost9iostreams6detail18indirect_streambufINS0_17basic_null_deviceIcNS0_6outputEEESt11char_traitsIcESaIcES4_E8set_nextEPNS1_16linked_streambufIcS7_EE@Base 1.4.10
 _ZN5boost9iostreams6detail18indirect_streambufINS0_17basic_null_deviceIcNS0_6outputEEESt11char_traitsIcESaIcES4_E9pbackfailEi@Base 1.4.10
 _ZN5boost9iostreams6detail18indirect_streambufINS0_17basic_null_deviceIcNS0_6outputEEESt11char_traitsIcESaIcES4_E9seek_implElSt12_Ios_SeekdirSt13_Ios_Openmode@Base 1.4.10
 _ZN5boost9iostreams6detail18indirect_streambufINS0_17basic_null_deviceIcNS0_6outputEEESt11char_traitsIcESaIcES4_E9underflowEv@Base 1.4.10
 _ZN5boost9iostreams6detail18indirect_streambufINS0_17basic_null_deviceIcNS0_6outputEEESt11char_traitsIcESaIcES4_ED0Ev@Base 1.4.10
 _ZN5boost9iostreams6detail18indirect_streambufINS0_17basic_null_deviceIcNS0_6outputEEESt11char_traitsIcESaIcES4_ED1Ev@Base 1.4.10
 _ZN5boost9iostreams6detail18indirect_streambufINS0_17basic_null_deviceIcNS0_6outputEEESt11char_traitsIcESaIcES4_ED2Ev@Base 1.4.10
 _ZN5boost9iostreams6detail18indirect_streambufINS0_21basic_gzip_compressorISaIcEEESt11char_traitsIcES4_NS0_6outputEE10close_implESt13_Ios_Openmode@Base 1.4.10
 _ZN5boost9iostreams6detail18indirect_streambufINS0_21basic_gzip_compressorISaIcEEESt11char_traitsIcES4_NS0_6outputEE11strict_syncEv@Base 1.4.10
 _ZN5boost9iostreams6detail18indirect_streambufINS0_21basic_gzip_compressorISaIcEEESt11char_traitsIcES4_NS0_6outputEE13init_get_areaEv@Base 1.4.10
 _ZN5boost9iostreams6detail18indirect_streambufINS0_21basic_gzip_compressorISaIcEEESt11char_traitsIcES4_NS0_6outputEE13init_put_areaEv@Base 1.4.10
 _ZN5boost9iostreams6detail18indirect_streambufINS0_21basic_gzip_compressorISaIcEEESt11char_traitsIcES4_NS0_6outputEE14component_implEv@Base 1.4.10
 _ZN5boost9iostreams6detail18indirect_streambufINS0_21basic_gzip_compressorISaIcEEESt11char_traitsIcES4_NS0_6outputEE14set_auto_closeEb@Base 1.4.10
 _ZN5boost9iostreams6detail18indirect_streambufINS0_21basic_gzip_compressorISaIcEEESt11char_traitsIcES4_NS0_6outputEE4syncEv@Base 1.4.10
 _ZN5boost9iostreams6detail18indirect_streambufINS0_21basic_gzip_compressorISaIcEEESt11char_traitsIcES4_NS0_6outputEE5closeEv@Base 1.4.10
 _ZN5boost9iostreams6detail18indirect_streambufINS0_21basic_gzip_compressorISaIcEEESt11char_traitsIcES4_NS0_6outputEE5imbueERKSt6locale@Base 1.4.10
 _ZN5boost9iostreams6detail18indirect_streambufINS0_21basic_gzip_compressorISaIcEEESt11char_traitsIcES4_NS0_6outputEE7seekoffElSt12_Ios_SeekdirSt13_Ios_Openmode@Base 1.4.10
 _ZN5boost9iostreams6detail18indirect_streambufINS0_21basic_gzip_compressorISaIcEEESt11char_traitsIcES4_NS0_6outputEE7seekposESt4fposI11__mbstate_tESt13_Ios_Openmode@Base 1.4.10
 _ZN5boost9iostreams6detail18indirect_streambufINS0_21basic_gzip_compressorISaIcEEESt11char_traitsIcES4_NS0_6outputEE8overflowEi@Base 1.4.10
 _ZN5boost9iostreams6detail18indirect_streambufINS0_21basic_gzip_compressorISaIcEEESt11char_traitsIcES4_NS0_6outputEE8set_nextEPNS1_16linked_streambufIcS7_EE@Base 1.4.10
 _ZN5boost9iostreams6detail18indirect_streambufINS0_21basic_gzip_compressorISaIcEEESt11char_traitsIcES4_NS0_6outputEE9pbackfailEi@Base 1.4.10
 _ZN5boost9iostreams6detail18indirect_streambufINS0_21basic_gzip_compressorISaIcEEESt11char_traitsIcES4_NS0_6outputEE9seek_implElSt12_Ios_SeekdirSt13_Ios_Openmode@Base 1.4.10
 _ZN5boost9iostreams6detail18indirect_streambufINS0_21basic_gzip_compressorISaIcEEESt11char_traitsIcES4_NS0_6outputEE9sync_implEv@Base 1.4.10
 _ZN5boost9iostreams6detail18indirect_streambufINS0_21basic_gzip_compressorISaIcEEESt11char_traitsIcES4_NS0_6outputEE9underflowEv@Base 1.4.10
 _ZN5boost9iostreams6detail18indirect_streambufINS0_21basic_gzip_compressorISaIcEEESt11char_traitsIcES4_NS0_6outputEED0Ev@Base 1.4.10
 _ZN5boost9iostreams6detail18indirect_streambufINS0_21basic_gzip_compressorISaIcEEESt11char_traitsIcES4_NS0_6outputEED1Ev@Base 1.4.10
 _ZN5boost9iostreams6detail18indirect_streambufINS0_21basic_gzip_compressorISaIcEEESt11char_traitsIcES4_NS0_6outputEED2Ev@Base 1.4.10
 _ZN5boost9iostreams6detail18indirect_streambufINS0_22basic_bzip2_compressorISaIcEEESt11char_traitsIcES4_NS0_6outputEE10close_implESt13_Ios_Openmode@Base 1.4.10
 _ZN5boost9iostreams6detail18indirect_streambufINS0_22basic_bzip2_compressorISaIcEEESt11char_traitsIcES4_NS0_6outputEE11strict_syncEv@Base 1.4.10
 _ZN5boost9iostreams6detail18indirect_streambufINS0_22basic_bzip2_compressorISaIcEEESt11char_traitsIcES4_NS0_6outputEE13init_get_areaEv@Base 1.4.10
 _ZN5boost9iostreams6detail18indirect_streambufINS0_22basic_bzip2_compressorISaIcEEESt11char_traitsIcES4_NS0_6outputEE13init_put_areaEv@Base 1.4.10
 _ZN5boost9iostreams6detail18indirect_streambufINS0_22basic_bzip2_compressorISaIcEEESt11char_traitsIcES4_NS0_6outputEE14component_implEv@Base 1.4.10
 _ZN5boost9iostreams6detail18indirect_streambufINS0_22basic_bzip2_compressorISaIcEEESt11char_traitsIcES4_NS0_6outputEE14set_auto_closeEb@Base 1.4.10
 _ZN5boost9iostreams6detail18indirect_streambufINS0_22basic_bzip2_compressorISaIcEEESt11char_traitsIcES4_NS0_6outputEE4syncEv@Base 1.4.10
 _ZN5boost9iostreams6detail18indirect_streambufINS0_22basic_bzip2_compressorISaIcEEESt11char_traitsIcES4_NS0_6outputEE5closeEv@Base 1.4.10
 _ZN5boost9iostreams6detail18indirect_streambufINS0_22basic_bzip2_compressorISaIcEEESt11char_traitsIcES4_NS0_6outputEE5imbueERKSt6locale@Base 1.4.10
 _ZN5boost9iostreams6detail18indirect_streambufINS0_22basic_bzip2_compressorISaIcEEESt11char_traitsIcES4_NS0_6outputEE7seekoffElSt12_Ios_SeekdirSt13_Ios_Openmode@Base 1.4.10
 _ZN5boost9iostreams6detail18indirect_streambufINS0_22basic_bzip2_compressorISaIcEEESt11char_traitsIcES4_NS0_6outputEE7seekposESt4fposI11__mbstate_tESt13_Ios_Openmode@Base 1.4.10
 _ZN5boost9iostreams6detail18indirect_streambufINS0_22basic_bzip2_compressorISaIcEEESt11char_traitsIcES4_NS0_6outputEE8overflowEi@Base 1.4.10
 _ZN5boost9iostreams6detail18indirect_streambufINS0_22basic_bzip2_compressorISaIcEEESt11char_traitsIcES4_NS0_6outputEE8set_nextEPNS1_16linked_streambufIcS7_EE@Base 1.4.10
 _ZN5boost9iostreams6detail18indirect_streambufINS0_22basic_bzip2_compressorISaIcEEESt11char_traitsIcES4_NS0_6outputEE9pbackfailEi@Base 1.4.10
 _ZN5boost9iostreams6detail18indirect_streambufINS0_22basic_bzip2_compressorISaIcEEESt11char_traitsIcES4_NS0_6outputEE9seek_implElSt12_Ios_SeekdirSt13_Ios_Openmode@Base 1.4.10
 _ZN5boost9iostreams6detail18indirect_streambufINS0_22basic_bzip2_compressorISaIcEEESt11char_traitsIcES4_NS0_6outputEE9sync_implEv@Base 1.4.10
 _ZN5boost9iostreams6detail18indirect_streambufINS0_22basic_bzip2_compressorISaIcEEESt11char_traitsIcES4_NS0_6outputEE9underflowEv@Base 1.4.10
 _ZN5boost9iostreams6detail18indirect_streambufINS0_22basic_bzip2_compressorISaIcEEESt11char_traitsIcES4_NS0_6outputEED0Ev@Base 1.4.10
 _ZN5boost9iostreams6detail18indirect_streambufINS0_22basic_bzip2_compressorISaIcEEESt11char_traitsIcES4_NS0_6outputEED1Ev@Base 1.4.10
 _ZN5boost9iostreams6detail18indirect_streambufINS0_22basic_bzip2_compressorISaIcEEESt11char_traitsIcES4_NS0_6outputEED2Ev@Base 1.4.10
 _ZN5boost9iostreams6detail18indirect_streambufINS1_12mode_adapterINS0_6outputESoEESt11char_traitsIcESaIcES4_E10close_implESt13_Ios_Openmode@Base 1.4.10
 _ZN5boost9iostreams6detail18indirect_streambufINS1_12mode_adapterINS0_6outputESoEESt11char_traitsIcESaIcES4_E11strict_syncEv@Base 1.4.10
 _ZN5boost9iostreams6detail18indirect_streambufINS1_12mode_adapterINS0_6outputESoEESt11char_traitsIcESaIcES4_E13init_get_areaEv@Base 1.4.10
 _ZN5boost9iostreams6detail18indirect_streambufINS1_12mode_adapterINS0_6outputESoEESt11char_traitsIcESaIcES4_E13init_put_areaEv@Base 1.4.10
 _ZN5boost9iostreams6detail18indirect_streambufINS1_12mode_adapterINS0_6outputESoEESt11char_traitsIcESaIcES4_E14component_implEv@Base 1.4.10
 _ZN5boost9iostreams6detail18indirect_streambufINS1_12mode_adapterINS0_6outputESoEESt11char_traitsIcESaIcES4_E14set_auto_closeEb@Base 1.4.10
 _ZN5boost9iostreams6detail18indirect_streambufINS1_12mode_adapterINS0_6outputESoEESt11char_traitsIcESaIcES4_E4syncEv@Base 1.4.10
 _ZN5boost9iostreams6detail18indirect_streambufINS1_12mode_adapterINS0_6outputESoEESt11char_traitsIcESaIcES4_E5closeEv@Base 1.4.10
 _ZN5boost9iostreams6detail18indirect_streambufINS1_12mode_adapterINS0_6outputESoEESt11char_traitsIcESaIcES4_E5imbueERKSt6locale@Base 1.4.10
 _ZN5boost9iostreams6detail18indirect_streambufINS1_12mode_adapterINS0_6outputESoEESt11char_traitsIcESaIcES4_E7seekoffElSt12_Ios_SeekdirSt13_Ios_Openmode@Base 1.4.10
 _ZN5boost9iostreams6detail18indirect_streambufINS1_12mode_adapterINS0_6outputESoEESt11char_traitsIcESaIcES4_E7seekposESt4fposI11__mbstate_tESt13_Ios_Openmode@Base 1.4.10
 _ZN5boost9iostreams6detail18indirect_streambufINS1_12mode_adapterINS0_6outputESoEESt11char_traitsIcESaIcES4_E8overflowEi@Base 1.4.10
 _ZN5boost9iostreams6detail18indirect_streambufINS1_12mode_adapterINS0_6outputESoEESt11char_traitsIcESaIcES4_E8set_nextEPNS1_16linked_streambufIcS7_EE@Base 1.4.10
 _ZN5boost9iostreams6detail18indirect_streambufINS1_12mode_adapterINS0_6outputESoEESt11char_traitsIcESaIcES4_E9pbackfailEi@Base 1.4.10
 _ZN5boost9iostreams6detail18indirect_streambufINS1_12mode_adapterINS0_6outputESoEESt11char_traitsIcESaIcES4_E9seek_implElSt12_Ios_SeekdirSt13_Ios_Openmode@Base 1.4.10
 _ZN5boost9iostreams6detail18indirect_streambufINS1_12mode_adapterINS0_6outputESoEESt11char_traitsIcESaIcES4_E9sync_implEv@Base 1.4.10
 _ZN5boost9iostreams6detail18indirect_streambufINS1_12mode_adapterINS0_6outputESoEESt11char_traitsIcESaIcES4_E9underflowEv@Base 1.4.10
 _ZN5boost9iostreams6detail18indirect_streambufINS1_12mode_adapterINS0_6outputESoEESt11char_traitsIcESaIcES4_ED0Ev@Base 1.4.10
 _ZN5boost9iostreams6detail18indirect_streambufINS1_12mode_adapterINS0_6outputESoEESt11char_traitsIcESaIcES4_ED1Ev@Base 1.4.10
 _ZN5boost9iostreams6detail18indirect_streambufINS1_12mode_adapterINS0_6outputESoEESt11char_traitsIcESaIcES4_ED2Ev@Base 1.4.10
 _ZN5boost9iostreams6detail20zlib_compressor_implISaIcEE6filterERPKcS6_RPcS8_b@Base 1.4.10
 _ZN5boost9iostreams6detail21bzip2_compressor_implISaIcEE6filterERPKcS6_RPcS8_b@Base 1.4.10
 _ZN5boost9iostreams6detail21filtering_stream_baseINS0_5chainINS0_6outputEcSt11char_traitsIcESaIcEEENS0_7public_EE6notifyEv@Base 1.4.10
 _ZN5boost9iostreams6detail9close_allINS0_21basic_gzip_compressorISaIcEEENS1_16linked_streambufIcSt11char_traitsIcEEEEEvRT_RT0_@Base 1.4.10
 _ZN5boost9iostreams6detail9close_allINS0_22basic_bzip2_compressorISaIcEEENS1_16linked_streambufIcSt11char_traitsIcEEEEEvRT_RT0_@Base 1.4.10
 _ZN5boostlsIcSt11char_traitsIcESaIcEEERSt13basic_ostreamIT_T0_ES8_RKNS_12basic_formatIS5_S6_T1_EE@Base 1.4.10
 _ZN7Service17setResultCallbackERKSt8functionIFvPS_PK11ResultEntryEE@Base 1.4.10
 _ZN7ServiceC1Ev@Base 1.4.10
 _ZN7ServiceC2Ev@Base 1.4.10
 _ZN7ServiceD0Ev@Base 1.4.10
 _ZN7ServiceD1Ev@Base 1.4.10
 _ZN7ServiceD2Ev@Base 1.4.10
 _ZN8MyLogger16construct_loggerEv@Base 1.4.10
 _ZNK10Traceroute16getInitialMaxTTLERK15DestinationInfo@Base 1.4.10
 _ZNK10Traceroute7getNameB5cxx11Ev@Base 1.4.10
 _ZNK4Ping7getNameB5cxx11Ev@Base 1.4.10
 _ZNK5boost12basic_formatIcSt11char_traitsIcESaIcEE3strB5cxx11Ev@Base 1.4.10
 _ZNK5boost12basic_formatIcSt11char_traitsIcESaIcEE6getlocEv@Base 1.4.10
 _ZNK5boost16exception_detail10clone_implINS0_19error_info_injectorINS_17bad_function_callEEEE5cloneEv@Base 1.4.10
 _ZNK5boost16exception_detail10clone_implINS0_19error_info_injectorINS_17bad_function_callEEEE7rethrowEv@Base 1.4.10
 _ZNK5boost16exception_detail10clone_implINS0_19error_info_injectorINS_21thread_resource_errorEEEE5cloneEv@Base 1.4.10
 _ZNK5boost16exception_detail10clone_implINS0_19error_info_injectorINS_21thread_resource_errorEEEE7rethrowEv@Base 1.4.10
 _ZNK5boost16exception_detail10clone_implINS0_19error_info_injectorINS_2io12too_few_argsEEEE5cloneEv@Base 1.4.10
 _ZNK5boost16exception_detail10clone_implINS0_19error_info_injectorINS_2io12too_few_argsEEEE7rethrowEv@Base 1.4.10
 _ZNK5boost16exception_detail10clone_implINS0_19error_info_injectorINS_2io13too_many_argsEEEE5cloneEv@Base 1.4.10
 _ZNK5boost16exception_detail10clone_implINS0_19error_info_injectorINS_2io13too_many_argsEEEE7rethrowEv@Base 1.4.10
 _ZNK5boost16exception_detail10clone_implINS0_19error_info_injectorINS_2io17bad_format_stringEEEE5cloneEv@Base 1.4.10
 _ZNK5boost16exception_detail10clone_implINS0_19error_info_injectorINS_2io17bad_format_stringEEEE7rethrowEv@Base 1.4.10
 _ZNK5boost16exception_detail10clone_implINS0_19error_info_injectorINS_4asio12bad_executorEEEE5cloneEv@Base 1.4.10
 _ZNK5boost16exception_detail10clone_implINS0_19error_info_injectorINS_4asio12bad_executorEEEE7rethrowEv@Base 1.4.10
 _ZNK5boost16exception_detail10clone_implINS0_19error_info_injectorINS_4asio21invalid_service_ownerEEEE5cloneEv@Base 1.4.10
 _ZNK5boost16exception_detail10clone_implINS0_19error_info_injectorINS_4asio21invalid_service_ownerEEEE7rethrowEv@Base 1.4.10
 _ZNK5boost16exception_detail10clone_implINS0_19error_info_injectorINS_4asio22service_already_existsEEEE5cloneEv@Base 1.4.10
 _ZNK5boost16exception_detail10clone_implINS0_19error_info_injectorINS_4asio22service_already_existsEEEE7rethrowEv@Base 1.4.10
 _ZNK5boost16exception_detail10clone_implINS0_19error_info_injectorINS_4asio2ip16bad_address_castEEEE5cloneEv@Base 1.4.10
 _ZNK5boost16exception_detail10clone_implINS0_19error_info_injectorINS_4asio2ip16bad_address_castEEEE7rethrowEv@Base 1.4.10
 _ZNK5boost16exception_detail10clone_implINS0_19error_info_injectorINS_6system12system_errorEEEE5cloneEv@Base 1.4.10
 _ZNK5boost16exception_detail10clone_implINS0_19error_info_injectorINS_6system12system_errorEEEE7rethrowEv@Base 1.4.10
 _ZNK5boost16exception_detail10clone_implINS0_19error_info_injectorINS_9gregorian16bad_day_of_monthEEEE5cloneEv@Base 1.4.10
 _ZNK5boost16exception_detail10clone_implINS0_19error_info_injectorINS_9gregorian16bad_day_of_monthEEEE7rethrowEv@Base 1.4.10
 _ZNK5boost16exception_detail10clone_implINS0_19error_info_injectorINS_9gregorian8bad_yearEEEE5cloneEv@Base 1.4.10
 _ZNK5boost16exception_detail10clone_implINS0_19error_info_injectorINS_9gregorian8bad_yearEEEE7rethrowEv@Base 1.4.10
 _ZNK5boost16exception_detail10clone_implINS0_19error_info_injectorINS_9gregorian9bad_monthEEEE5cloneEv@Base 1.4.10
 _ZNK5boost16exception_detail10clone_implINS0_19error_info_injectorINS_9gregorian9bad_monthEEEE7rethrowEv@Base 1.4.10
 _ZNK5boost16exception_detail10clone_implINS0_19error_info_injectorINSt8ios_base7failureB5cxx11EEEE5cloneEv@Base 1.4.10
 _ZNK5boost16exception_detail10clone_implINS0_19error_info_injectorINSt8ios_base7failureB5cxx11EEEE7rethrowEv@Base 1.4.10
 _ZNK5boost16exception_detail10clone_implINS0_19error_info_injectorISt11logic_errorEEE5cloneEv@Base 1.4.10
 _ZNK5boost16exception_detail10clone_implINS0_19error_info_injectorISt11logic_errorEEE7rethrowEv@Base 1.4.10
 _ZNK5boost16exception_detail10clone_implINS0_19error_info_injectorISt12length_errorEEE5cloneEv@Base 1.4.10
 _ZNK5boost16exception_detail10clone_implINS0_19error_info_injectorISt12length_errorEEE7rethrowEv@Base 1.4.10
 _ZNK5boost16exception_detail10clone_implINS0_19error_info_injectorISt13runtime_errorEEE5cloneEv@Base 1.4.10
 _ZNK5boost16exception_detail10clone_implINS0_19error_info_injectorISt13runtime_errorEEE7rethrowEv@Base 1.4.10
 _ZNK5boost2io12format_error4whatEv@Base 1.4.10
 _ZNK5boost2io12too_few_args4whatEv@Base 1.4.10
 _ZNK5boost2io13too_many_args4whatEv@Base 1.4.10
 _ZNK5boost2io17bad_format_string4whatEv@Base 1.4.10
 _ZNK5boost2io6detail19stream_format_stateIcSt11char_traitsIcEE8apply_onERSt9basic_iosIcS4_EPSt6locale@Base 1.4.10
 _ZNK5boost3log11v2_mt_posix10attributes20attribute_value_implINS1_7trivial14severity_levelEE8get_typeEv@Base 1.4.10
 _ZNK5boost3log11v2_mt_posix10attributes20attribute_value_implINS_10posix_time5ptimeEE8get_typeEv@Base 1.4.10
 _ZNK5boost3log11v2_mt_posix15attribute_value4impl8get_typeEv@Base 1.4.10
 _ZNK5boost3log11v2_mt_posix15value_extractorINS1_7trivial14severity_levelENS1_16fallback_to_noneENS3_3tag8severityEEclERKNS1_14attribute_nameERKNS1_19attribute_value_setE@Base 1.4.10
 _ZNK5boost4asio10io_context13executor_type8dispatchINS0_8executor8functionESaIvEEEvOT_RKT0_@Base 1.4.10
 _ZNK5boost4asio10io_context13initiate_postclISt5_BindIFM10TracerouteFvvEPS5_EEEEvOT_PS1_@Base 1.4.10
 _ZNK5boost4asio12bad_executor4whatEv@Base 1.4.10
 _ZNK5boost4asio2ip16bad_address_cast4whatEv@Base 1.4.10
 _ZNK5boost4asio2ip7address9to_stringB5cxx11Ev@Base 1.4.10
 _ZNK5boost4asio5error6detail13misc_category4nameEv@Base 1.4.10
 _ZNK5boost4asio5error6detail13misc_category7messageB5cxx11Ei@Base 1.4.10
 _ZNK5boost4asio5error6detail14netdb_category4nameEv@Base 1.4.10
 _ZNK5boost4asio5error6detail14netdb_category7messageB5cxx11Ei@Base 1.4.10
 _ZNK5boost4asio5error6detail17addrinfo_category4nameEv@Base 1.4.10
 _ZNK5boost4asio5error6detail17addrinfo_category7messageB5cxx11Ei@Base 1.4.10
 _ZNK5boost4asio6detail11timer_queueINS0_11time_traitsINS_10posix_time5ptimeEEEE18wait_duration_msecEl@Base 1.4.10
 _ZNK5boost4asio6detail11timer_queueINS0_11time_traitsINS_10posix_time5ptimeEEEE18wait_duration_usecEl@Base 1.4.10
 _ZNK5boost4asio6detail11timer_queueINS0_11time_traitsINS_10posix_time5ptimeEEEE5emptyEv@Base 1.4.10
 _ZNK5boost4asio6detail11timer_queueINS1_28forwarding_posix_time_traitsEE18wait_duration_msecEl@Base 1.4.10
 _ZNK5boost4asio6detail11timer_queueINS1_28forwarding_posix_time_traitsEE18wait_duration_usecEl@Base 1.4.10
 _ZNK5boost4asio6detail11timer_queueINS1_28forwarding_posix_time_traitsEE5emptyEv@Base 1.4.10
 _ZNK5boost4asio8executor4implINS0_10io_context13executor_typeESaIvEE11target_typeEv@Base 1.4.10
 _ZNK5boost4asio8executor4implINS0_10io_context13executor_typeESaIvEE5cloneEv@Base 1.4.10
 _ZNK5boost4asio8executor4implINS0_10io_context13executor_typeESaIvEE6equalsEPKNS1_9impl_baseE@Base 1.4.10
 _ZNK5boost4asio8executor4implINS0_10io_context13executor_typeESaIvEE6targetEv@Base 1.4.10
 _ZNK5boost4asio8executor8dispatchINS0_6detail7binder1ISt5_BindIFM10TracerouteFvRKNS_6system10error_codeEEP4PingSt12_PlaceholderILi1EEEES8_EESaIvEEEvOT_RKT0_@Base 1.4.10
 _ZNK5boost4asio8executor8dispatchINS0_6detail7binder1ISt5_BindIFM10TracerouteFvRKNS_6system10error_codeEEPS6_St12_PlaceholderILi1EEEES8_EESaIvEEEvOT_RKT0_@Base 1.4.10
 _ZNK5boost4asio8executor8dispatchINS0_6detail7binder2ISt5_BindIFM10TracerouteFvRKNS_6system10error_codeEmEPS6_St12_PlaceholderILi1EESE_ILi2EEEES8_mEESaIvEEEvOT_RKT0_@Base 1.4.10
 _ZNK5boost6system12system_error4whatEv@Base 1.4.10
 _ZNK5boost6system14error_category10equivalentERKNS0_10error_codeEi@Base 1.4.10
 _ZNK5boost6system14error_category10equivalentEiRKNS0_15error_conditionE@Base 1.4.10
 _ZNK5boost6system14error_category23default_error_conditionEi@Base 1.4.10
 _ZNK5boost6system14error_category6failedEi@Base 1.4.10
 _ZNK5boost6system14error_category7messageEiPcm@Base 1.4.10
 _ZNK5boost6system6detail12std_category10equivalentERKSt10error_codei@Base 1.4.10
 _ZNK5boost6system6detail12std_category10equivalentEiRKSt15error_condition@Base 1.4.10
 _ZNK5boost6system6detail12std_category23default_error_conditionEi@Base 1.4.10
 _ZNK5boost6system6detail12std_category4nameEv@Base 1.4.10
 _ZNK5boost6system6detail12std_category7messageB5cxx11Ei@Base 1.4.10
 _ZNK5boost6system6detail21system_error_category23default_error_conditionEi@Base 1.4.10
 _ZNK5boost6system6detail21system_error_category4nameEv@Base 1.4.10
 _ZNK5boost6system6detail21system_error_category7messageB5cxx11Ei@Base 1.4.10
 _ZNK5boost6system6detail21system_error_category7messageEiPcm@Base 1.4.10
 _ZNK5boost6system6detail22generic_error_category4nameEv@Base 1.4.10
 _ZNK5boost6system6detail22generic_error_category7messageB5cxx11Ei@Base 1.4.10
 _ZNK5boost6system6detail22generic_error_category7messageEiPcm@Base 1.4.10
 _ZNK5boost9iostreams6detail18indirect_streambufINS0_17basic_null_deviceIcNS0_6outputEEESt11char_traitsIcESaIcES4_E10auto_closeEv@Base 1.4.10
 _ZNK5boost9iostreams6detail18indirect_streambufINS0_17basic_null_deviceIcNS0_6outputEEESt11char_traitsIcESaIcES4_E14component_typeEv@Base 1.4.10
 _ZNK5boost9iostreams6detail18indirect_streambufINS0_21basic_gzip_compressorISaIcEEESt11char_traitsIcES4_NS0_6outputEE10auto_closeEv@Base 1.4.10
 _ZNK5boost9iostreams6detail18indirect_streambufINS0_21basic_gzip_compressorISaIcEEESt11char_traitsIcES4_NS0_6outputEE14component_typeEv@Base 1.4.10
 _ZNK5boost9iostreams6detail18indirect_streambufINS0_22basic_bzip2_compressorISaIcEEESt11char_traitsIcES4_NS0_6outputEE10auto_closeEv@Base 1.4.10
 _ZNK5boost9iostreams6detail18indirect_streambufINS0_22basic_bzip2_compressorISaIcEEESt11char_traitsIcES4_NS0_6outputEE14component_typeEv@Base 1.4.10
 _ZNK5boost9iostreams6detail18indirect_streambufINS1_12mode_adapterINS0_6outputESoEESt11char_traitsIcESaIcES4_E10auto_closeEv@Base 1.4.10
 _ZNK5boost9iostreams6detail18indirect_streambufINS1_12mode_adapterINS0_6outputESoEESt11char_traitsIcESaIcES4_E14component_typeEv@Base 1.4.10
 _ZNKSt5ctypeIcE8do_widenEc@Base 1.4.10
 _ZNKSt5ctypeIcE9do_narrowEcc@Base 1.4.10
 _ZNSt22__uninitialized_fill_nILb0EE15__uninit_fill_nIPN5boost2io6detail11format_itemIcSt11char_traitsIcESaIcEEEmS9_EET_SB_T0_RKT1_@Base 1.4.10
 _ZNSt3mapIPKN5boost6system14error_categoryESt10unique_ptrINS1_6detail12std_categoryESt14default_deleteIS7_EENS6_12cat_ptr_lessESaISt4pairIKS4_SA_EEED1Ev@Base 1.4.10
 _ZNSt3mapIPKN5boost6system14error_categoryESt10unique_ptrINS1_6detail12std_categoryESt14default_deleteIS7_EENS6_12cat_ptr_lessESaISt4pairIKS4_SA_EEED2Ev@Base 1.4.10
 _ZNSt6thread11_State_implINS_8_InvokerISt5tupleIJM10TracerouteFvvEPS3_EEEEE6_M_runEv@Base 1.4.10
 _ZNSt6thread11_State_implINS_8_InvokerISt5tupleIJM10TracerouteFvvEPS3_EEEEED0Ev@Base 1.4.10
 _ZNSt6thread11_State_implINS_8_InvokerISt5tupleIJM10TracerouteFvvEPS3_EEEEED1Ev@Base 1.4.10
 _ZNSt6thread11_State_implINS_8_InvokerISt5tupleIJM10TracerouteFvvEPS3_EEEEED2Ev@Base 1.4.10
 _ZNSt6vectorIN5boost2io6detail11format_itemIcSt11char_traitsIcESaIcEEESaIS7_EE14_M_fill_assignEmRKS7_@Base 1.4.10
 _ZNSt6vectorIN5boost2io6detail11format_itemIcSt11char_traitsIcESaIcEEESaIS7_EE14_M_fill_insertEN9__gnu_cxx17__normal_iteratorIPS7_S9_EEmRKS7_@Base 1.4.10
 _ZNSt6vectorIN5boost4asio6detail11timer_queueINS2_28forwarding_posix_time_traitsEE10heap_entryESaIS6_EE17_M_realloc_insertIJRKS6_EEEvN9__gnu_cxx17__normal_iteratorIPS6_S8_EEDpOT_@Base 1.4.10
 _ZNSt6vectorINSt7__cxx1112basic_stringIcSt11char_traitsIcESaIcEEESaIS5_EE17_M_realloc_insertIJS5_EEEvN9__gnu_cxx17__normal_iteratorIPS5_S7_EEDpOT_@Base 1.4.10
 _ZNSt6vectorINSt7__cxx1112basic_stringIcSt11char_traitsIcESaIcEEESaIS5_EEC1IN5boost9iterators18transform_iteratorINS9_9algorithm6detail20copy_iterator_rangeFIS5_N9__gnu_cxx17__normal_iteratorIPKcS5_EEEENSC_14split_iteratorISJ_EENS9_11use_defaultESN_EEvEET_SP_RKS6_@Base 1.4.10
 _ZNSt6vectorINSt7__cxx1112basic_stringIcSt11char_traitsIcESaIcEEESaIS5_EEC2IN5boost9iterators18transform_iteratorINS9_9algorithm6detail20copy_iterator_rangeFIS5_N9__gnu_cxx17__normal_iteratorIPKcS5_EEEENSC_14split_iteratorISJ_EENS9_11use_defaultESN_EEvEET_SP_RKS6_@Base 1.4.10
 _ZNSt6vectorIP11ResultEntrySaIS1_EE17_M_realloc_insertIJS1_EEEvN9__gnu_cxx17__normal_iteratorIPS1_S3_EEDpOT_@Base 1.4.10
 _ZNSt6vectorIPFvRN5boost3log11v2_mt_posix3aux19date_time_formatterINS3_23decomposed_time_wrapperINS0_10posix_time5ptimeEEEcE7contextEESaISD_EE17_M_realloc_insertIJRKSD_EEEvN9__gnu_cxx17__normal_iteratorIPSD_SF_EEDpOT_@Base 1.4.10
 _ZNSt6vectorIbSaIbEE14_M_fill_insertESt13_Bit_iteratormb@Base 1.4.10
 _ZNSt6vectorIcSaIcEE17_M_default_appendEm@Base 1.4.10
 _ZNSt6vectorIjSaIjEE17_M_realloc_insertIJjEEEvN9__gnu_cxx17__normal_iteratorIPjS1_EEDpOT_@Base 1.4.10
 _ZNSt7__cxx1112basic_stringIcSt11char_traitsIcESaIcEE12_M_constructIPcEEvT_S7_St20forward_iterator_tag@Base 1.4.10
 _ZNSt7__cxx1115basic_stringbufIcSt11char_traitsIcESaIcEED0Ev@Base 1.4.10
 _ZNSt7__cxx1115basic_stringbufIcSt11char_traitsIcESaIcEED1Ev@Base 1.4.10
 _ZNSt7__cxx1115basic_stringbufIcSt11char_traitsIcESaIcEED2Ev@Base 1.4.10
 _ZNSt8_Rb_treeI15DestinationInfoS0_St9_IdentityIS0_ESt4lessIS0_ESaIS0_EE16_M_insert_uniqueIRKS0_EESt4pairISt17_Rb_tree_iteratorIS0_EbEOT_@Base 1.4.10
 _ZNSt8_Rb_treeI15DestinationInfoS0_St9_IdentityIS0_ESt4lessIS0_ESaIS0_EE8_M_eraseEPSt13_Rb_tree_nodeIS0_E@Base 1.4.10
 _ZNSt8_Rb_treeI15DestinationInfoSt4pairIKS0_jESt10_Select1stIS3_ESt4lessIS0_ESaIS3_EE22_M_emplace_hint_uniqueIJRKSt21piecewise_construct_tSt5tupleIJRS2_EESE_IJEEEEESt17_Rb_tree_iteratorIS3_ESt23_Rb_tree_const_iteratorIS3_EDpOT_@Base 1.4.10
 _ZNSt8_Rb_treeI15DestinationInfoSt4pairIKS0_jESt10_Select1stIS3_ESt4lessIS0_ESaIS3_EE24_M_get_insert_unique_posERS2_@Base 1.4.10
 _ZNSt8_Rb_treeI15DestinationInfoSt4pairIKS0_jESt10_Select1stIS3_ESt4lessIS0_ESaIS3_EE29_M_get_insert_hint_unique_posESt23_Rb_tree_const_iteratorIS3_ERS2_@Base 1.4.10
 _ZNSt8_Rb_treeI15DestinationInfoSt4pairIKS0_jESt10_Select1stIS3_ESt4lessIS0_ESaIS3_EE8_M_eraseEPSt13_Rb_tree_nodeIS3_E@Base 1.4.10
 _ZNSt8_Rb_treeIN5boost4asio2ip7addressES3_St9_IdentityIS3_ESt4lessIS3_ESaIS3_EE16_M_insert_uniqueIRKS3_EESt4pairISt17_Rb_tree_iteratorIS3_EbEOT_@Base 1.4.10
 _ZNSt8_Rb_treeIN5boost4asio2ip7addressESt4pairIKS3_St3setIhSt4lessIhESaIhEEESt10_Select1stISB_ES7_IS3_ESaISB_EE14_M_insert_nodeEPSt18_Rb_tree_node_baseSI_PSt13_Rb_tree_nodeISB_E@Base 1.4.10
 _ZNSt8_Rb_treeIN5boost4asio2ip7addressESt4pairIKS3_St3setIhSt4lessIhESaIhEEESt10_Select1stISB_ES7_IS3_ESaISB_EE17_M_emplace_uniqueIJS4_IS3_SA_EEEES4_ISt17_Rb_tree_iteratorISB_EbEDpOT_@Base 1.4.10
 _ZNSt8_Rb_treeIN5boost4asio2ip7addressESt4pairIKS3_St3setIhSt4lessIhESaIhEEESt10_Select1stISB_ES7_IS3_ESaISB_EE22_M_emplace_hint_uniqueIJRKSt21piecewise_construct_tSt5tupleIJRS5_EESL_IJEEEEESt17_Rb_tree_iteratorISB_ESt23_Rb_tree_const_iteratorISB_EDpOT_@Base 1.4.10
 _ZNSt8_Rb_treeIN5boost4asio2ip7addressESt4pairIKS3_St3setIhSt4lessIhESaIhEEESt10_Select1stISB_ES7_IS3_ESaISB_EE24_M_get_insert_unique_posERS5_@Base 1.4.10
 _ZNSt8_Rb_treeIN5boost4asio2ip7addressESt4pairIKS3_St3setIhSt4lessIhESaIhEEESt10_Select1stISB_ES7_IS3_ESaISB_EE29_M_get_insert_hint_unique_posESt23_Rb_tree_const_iteratorISB_ERS5_@Base 1.4.10
 _ZNSt8_Rb_treeIN5boost4asio2ip7addressESt4pairIKS3_St3setIhSt4lessIhESaIhEEESt10_Select1stISB_ES7_IS3_ESaISB_EE4findERS5_@Base 1.4.10
 _ZNSt8_Rb_treeIP13ResultsWriterS1_St9_IdentityIS1_ESt4lessIS1_ESaIS1_EE16_M_insert_uniqueIRKS1_EESt4pairISt17_Rb_tree_iteratorIS1_EbEOT_@Base 1.4.10
 _ZNSt8_Rb_treeIPKN5boost6system14error_categoryESt4pairIKS4_St10unique_ptrINS1_6detail12std_categoryESt14default_deleteIS9_EEESt10_Select1stISD_ENS8_12cat_ptr_lessESaISD_EE16_M_insert_uniqueISD_EES5_ISt17_Rb_tree_iteratorISD_EbEOT_@Base 1.4.10
 _ZNSt8_Rb_treeIPKN5boost6system14error_categoryESt4pairIKS4_St10unique_ptrINS1_6detail12std_categoryESt14default_deleteIS9_EEESt10_Select1stISD_ENS8_12cat_ptr_lessESaISD_EE24_M_get_insert_unique_posERS6_@Base 1.4.10
 _ZNSt8_Rb_treeIPKN5boost6system14error_categoryESt4pairIKS4_St10unique_ptrINS1_6detail12std_categoryESt14default_deleteIS9_EEESt10_Select1stISD_ENS8_12cat_ptr_lessESaISD_EE8_M_eraseEPSt13_Rb_tree_nodeISD_E@Base 1.4.10
 _ZNSt8_Rb_treeIhhSt9_IdentityIhESt4lessIhESaIhEE16_M_insert_uniqueIhEESt4pairISt17_Rb_tree_iteratorIhEbEOT_@Base 1.4.10
 _ZNSt8_Rb_treeIhhSt9_IdentityIhESt4lessIhESaIhEE8_M_eraseEPSt13_Rb_tree_nodeIhE@Base 1.4.10
 _ZNSt8_Rb_treeItSt4pairIKt11ResultEntryESt10_Select1stIS3_ESt4lessItESaIS3_EE17_M_emplace_uniqueIJS0_ItS2_EEEES0_ISt17_Rb_tree_iteratorIS3_EbEDpOT_@Base 1.4.10
 _ZNSt8_Rb_treeItSt4pairIKt11ResultEntryESt10_Select1stIS3_ESt4lessItESaIS3_EE8_M_eraseEPSt13_Rb_tree_nodeIS3_E@Base 1.4.10
 _ZSt13__adjust_heapIN9__gnu_cxx17__normal_iteratorIPP11ResultEntrySt6vectorIS3_SaIS3_EEEElS3_NS0_5__ops15_Iter_comp_iterIPFiPKS2_SC_EEEEvT_T0_SH_T1_T2_@Base 1.4.10
 _ZSt13__adjust_heapIPSt4pairIN5boost9typeindex14stl_type_indexEPvElS5_N9__gnu_cxx5__ops15_Iter_comp_iterINS1_3log11v2_mt_posix3aux21dispatching_map_orderEEEEvT_T0_SG_T1_T2_@Base 1.4.10
 _ZSt13__adjust_heapIPclcN9__gnu_cxx5__ops15_Iter_less_iterEEvT_T0_S5_T1_T2_@Base 1.4.10
 _ZSt13__heap_selectIPSt4pairIN5boost9typeindex14stl_type_indexEPvEN9__gnu_cxx5__ops15_Iter_comp_iterINS1_3log11v2_mt_posix3aux21dispatching_map_orderEEEEvT_SF_SF_T0_@Base 1.4.10
 _ZSt13binary_searchIPKccEbT_S2_RKT0_@Base 1.4.10
 _ZSt16__insertion_sortIN9__gnu_cxx17__normal_iteratorIPP11ResultEntrySt6vectorIS3_SaIS3_EEEENS0_5__ops15_Iter_comp_iterIPFiPKS2_SC_EEEEvT_SG_T0_@Base 1.4.10
 _ZSt16__insertion_sortIPSt4pairIN5boost9typeindex14stl_type_indexEPvEN9__gnu_cxx5__ops15_Iter_comp_iterINS1_3log11v2_mt_posix3aux21dispatching_map_orderEEEEvT_SF_T0_@Base 1.4.10
 _ZSt16__insertion_sortIPcN9__gnu_cxx5__ops15_Iter_less_iterEEvT_S4_T0_@Base 1.4.10
 _ZSt16__introsort_loopIN9__gnu_cxx17__normal_iteratorIPP11ResultEntrySt6vectorIS3_SaIS3_EEEElNS0_5__ops15_Iter_comp_iterIPFiPKS2_SC_EEEEvT_SG_T0_T1_@Base 1.4.10
 _ZSt16__introsort_loopIPSt4pairIN5boost9typeindex14stl_type_indexEPvElN9__gnu_cxx5__ops15_Iter_comp_iterINS1_3log11v2_mt_posix3aux21dispatching_map_orderEEEEvT_SF_T0_T1_@Base 1.4.10
 _ZSt4fillSt13_Bit_iteratorS_RKb@Base 1.4.10
 _ZSt9__find_ifIN9__gnu_cxx17__normal_iteratorIPKcNSt7__cxx1112basic_stringIcSt11char_traitsIcESaIcEEEEENS0_5__ops10_Iter_predIN5boost9algorithm6detail10is_any_ofFIcEEEEET_SJ_SJ_T0_St26random_access_iterator_tag@Base 1.4.10
 _ZStplIcSt11char_traitsIcESaIcEENSt7__cxx1112basic_stringIT_T0_T1_EEOS8_S9_@Base 1.4.10
 _ZTI10Traceroute@Base 1.4.10
 _ZTI13ResultsWriter@Base 1.4.10
 _ZTI4Ping@Base 1.4.10
 _ZTI7Service@Base 1.4.10
 _ZTI8MyLogger@Base 1.4.10
 _ZTIN5boost10posix_time5ptimeE@Base 1.4.10
 _ZTIN5boost10wrapexceptINS_17bad_function_callEEE@Base 1.4.10
 _ZTIN5boost10wrapexceptINS_21thread_resource_errorEEE@Base 1.4.10
 _ZTIN5boost10wrapexceptINS_2io12too_few_argsEEE@Base 1.4.10
 _ZTIN5boost10wrapexceptINS_2io13too_many_argsEEE@Base 1.4.10
 _ZTIN5boost10wrapexceptINS_2io17bad_format_stringEEE@Base 1.4.10
 _ZTIN5boost10wrapexceptINS_4asio12bad_executorEEE@Base 1.4.10
 _ZTIN5boost10wrapexceptINS_4asio21invalid_service_ownerEEE@Base 1.4.10
 _ZTIN5boost10wrapexceptINS_4asio22service_already_existsEEE@Base 1.4.10
 _ZTIN5boost10wrapexceptINS_4asio2ip16bad_address_castEEE@Base 1.4.10
 _ZTIN5boost10wrapexceptINS_6system12system_errorEEE@Base 1.4.10
 _ZTIN5boost10wrapexceptINS_9gregorian16bad_day_of_monthEEE@Base 1.4.10
 _ZTIN5boost10wrapexceptINS_9gregorian8bad_yearEEE@Base 1.4.10
 _ZTIN5boost10wrapexceptINS_9gregorian9bad_monthEEE@Base 1.4.10
 _ZTIN5boost10wrapexceptINSt8ios_base7failureB5cxx11EEE@Base 1.4.10
 _ZTIN5boost10wrapexceptISt11logic_errorEE@Base 1.4.10
 _ZTIN5boost10wrapexceptISt12length_errorEE@Base 1.4.10
 _ZTIN5boost10wrapexceptISt13runtime_errorEE@Base 1.4.10
 _ZTIN5boost12interprocess15basic_bufferbufIcSt11char_traitsIcEEE@Base 1.4.10
 _ZTIN5boost12interprocess18basic_bufferstreamIcSt11char_traitsIcEEE@Base 1.4.10
 _ZTIN5boost12sp_adl_block21intrusive_ref_counterINS_3log11v2_mt_posix9attribute4implENS0_19thread_safe_counterEEE@Base 1.4.10
 _ZTIN5boost14operators_impl16operators_detail10empty_baseINS_10posix_time5ptimeEEE@Base 1.4.10
 _ZTIN5boost14operators_impl19equality_comparableINS_10posix_time5ptimeES3_NS0_16operators_detail10empty_baseIS3_EENS4_7false_tEEE@Base 1.4.10
 _ZTIN5boost14operators_impl20equality_comparable1INS_10posix_time5ptimeENS0_16operators_detail10empty_baseIS3_EEEE@Base 1.4.10
 _ZTIN5boost14operators_impl20less_than_comparableINS_10posix_time5ptimeENS0_19equality_comparableIS3_S3_NS0_16operators_detail10empty_baseIS3_EENS5_7false_tEEES7_NS5_6true_tEEE@Base 1.4.10
 _ZTIN5boost14operators_impl21less_than_comparable1INS_10posix_time5ptimeENS0_19equality_comparableIS3_S3_NS0_16operators_detail10empty_baseIS3_EENS5_7false_tEEEEE@Base 1.4.10
 _ZTIN5boost16base_from_memberINS_10shared_ptrINS_2io18basic_altstringbufIcSt11char_traitsIcESaIcEEEEELi0EEE@Base 1.4.10
 _ZTIN5boost16exception_detail10clone_baseE@Base 1.4.10
 _ZTIN5boost16exception_detail10clone_implINS0_19error_info_injectorINS_17bad_function_callEEEEE@Base 1.4.10
 _ZTIN5boost16exception_detail10clone_implINS0_19error_info_injectorINS_21thread_resource_errorEEEEE@Base 1.4.10
 _ZTIN5boost16exception_detail10clone_implINS0_19error_info_injectorINS_2io12too_few_argsEEEEE@Base 1.4.10
 _ZTIN5boost16exception_detail10clone_implINS0_19error_info_injectorINS_2io13too_many_argsEEEEE@Base 1.4.10
 _ZTIN5boost16exception_detail10clone_implINS0_19error_info_injectorINS_2io17bad_format_stringEEEEE@Base 1.4.10
 _ZTIN5boost16exception_detail10clone_implINS0_19error_info_injectorINS_4asio12bad_executorEEEEE@Base 1.4.10
 _ZTIN5boost16exception_detail10clone_implINS0_19error_info_injectorINS_4asio21invalid_service_ownerEEEEE@Base 1.4.10
 _ZTIN5boost16exception_detail10clone_implINS0_19error_info_injectorINS_4asio22service_already_existsEEEEE@Base 1.4.10
 _ZTIN5boost16exception_detail10clone_implINS0_19error_info_injectorINS_4asio2ip16bad_address_castEEEEE@Base 1.4.10
 _ZTIN5boost16exception_detail10clone_implINS0_19error_info_injectorINS_6system12system_errorEEEEE@Base 1.4.10
 _ZTIN5boost16exception_detail10clone_implINS0_19error_info_injectorINS_9gregorian16bad_day_of_monthEEEEE@Base 1.4.10
 _ZTIN5boost16exception_detail10clone_implINS0_19error_info_injectorINS_9gregorian8bad_yearEEEEE@Base 1.4.10
 _ZTIN5boost16exception_detail10clone_implINS0_19error_info_injectorINS_9gregorian9bad_monthEEEEE@Base 1.4.10
 _ZTIN5boost16exception_detail10clone_implINS0_19error_info_injectorINSt8ios_base7failureB5cxx11EEEEE@Base 1.4.10
 _ZTIN5boost16exception_detail10clone_implINS0_19error_info_injectorISt11logic_errorEEEE@Base 1.4.10
 _ZTIN5boost16exception_detail10clone_implINS0_19error_info_injectorISt12length_errorEEEE@Base 1.4.10
 _ZTIN5boost16exception_detail10clone_implINS0_19error_info_injectorISt13runtime_errorEEEE@Base 1.4.10
 _ZTIN5boost16exception_detail19error_info_injectorINS_17bad_function_callEEE@Base 1.4.10
 _ZTIN5boost16exception_detail19error_info_injectorINS_21thread_resource_errorEEE@Base 1.4.10
 _ZTIN5boost16exception_detail19error_info_injectorINS_2io12too_few_argsEEE@Base 1.4.10
 _ZTIN5boost16exception_detail19error_info_injectorINS_2io13too_many_argsEEE@Base 1.4.10
 _ZTIN5boost16exception_detail19error_info_injectorINS_2io17bad_format_stringEEE@Base 1.4.10
 _ZTIN5boost16exception_detail19error_info_injectorINS_4asio12bad_executorEEE@Base 1.4.10
 _ZTIN5boost16exception_detail19error_info_injectorINS_4asio21invalid_service_ownerEEE@Base 1.4.10
 _ZTIN5boost16exception_detail19error_info_injectorINS_4asio22service_already_existsEEE@Base 1.4.10
 _ZTIN5boost16exception_detail19error_info_injectorINS_4asio2ip16bad_address_castEEE@Base 1.4.10
 _ZTIN5boost16exception_detail19error_info_injectorINS_6system12system_errorEEE@Base 1.4.10
 _ZTIN5boost16exception_detail19error_info_injectorINS_9gregorian16bad_day_of_monthEEE@Base 1.4.10
 _ZTIN5boost16exception_detail19error_info_injectorINS_9gregorian8bad_yearEEE@Base 1.4.10
 _ZTIN5boost16exception_detail19error_info_injectorINS_9gregorian9bad_monthEEE@Base 1.4.10
 _ZTIN5boost16exception_detail19error_info_injectorINSt8ios_base7failureB5cxx11EEE@Base 1.4.10
 _ZTIN5boost16exception_detail19error_info_injectorISt11logic_errorEE@Base 1.4.10
 _ZTIN5boost16exception_detail19error_info_injectorISt12length_errorEE@Base 1.4.10
 _ZTIN5boost16exception_detail19error_info_injectorISt13runtime_errorEE@Base 1.4.10
 _ZTIN5boost16thread_exceptionE@Base 1.4.10
 _ZTIN5boost17bad_function_callE@Base 1.4.10
 _ZTIN5boost18thread_interruptedE@Base 1.4.10
 _ZTIN5boost21thread_resource_errorE@Base 1.4.10
 _ZTIN5boost2io12format_errorE@Base 1.4.10
 _ZTIN5boost2io12too_few_argsE@Base 1.4.10
 _ZTIN5boost2io13too_many_argsE@Base 1.4.10
 _ZTIN5boost2io17bad_format_stringE@Base 1.4.10
 _ZTIN5boost2io18basic_altstringbufIcSt11char_traitsIcESaIcEEE@Base 1.4.10
 _ZTIN5boost2io22basic_oaltstringstreamIcSt11char_traitsIcESaIcEEE@Base 1.4.10
 _ZTIN5boost3log11v2_mt_posix10attributes11basic_clockINS2_17local_time_traitsEE4implE@Base 1.4.10
 _ZTIN5boost3log11v2_mt_posix10attributes20attribute_value_implINS1_7trivial14severity_levelEEE@Base 1.4.10
 _ZTIN5boost3log11v2_mt_posix10attributes20attribute_value_implINS_10posix_time5ptimeEEE@Base 1.4.10
 _ZTIN5boost3log11v2_mt_posix15attribute_value4implE@Base 1.4.10
 _ZTIN5boost3log11v2_mt_posix3aux22basic_ostringstreambufIcSt11char_traitsIcESaIcEEE@Base 1.4.10
 _ZTIN5boost3log11v2_mt_posix3aux27date_format_parser_callbackIcEE@Base 1.4.10
 _ZTIN5boost3log11v2_mt_posix3aux27time_format_parser_callbackIcEE@Base 1.4.10
 _ZTIN5boost3log11v2_mt_posix3aux32date_time_format_parser_callbackIcEE@Base 1.4.10
 _ZTIN5boost3log11v2_mt_posix3aux33decomposed_time_formatter_builderINS1_11expressions3aux41date_time_formatter_generator_traits_implINS_10posix_time5ptimeEcE9formatterEcEE@Base 1.4.10
 _ZTIN5boost3log11v2_mt_posix5sinks16synchronous_sinkINS2_26basic_text_ostream_backendIcEEEE@Base 1.4.10
 _ZTIN5boost3log11v2_mt_posix5sinks19basic_sink_frontendE@Base 1.4.10
 _ZTIN5boost3log11v2_mt_posix5sinks30basic_formatting_sink_frontendIcEE@Base 1.4.10
 _ZTIN5boost3log11v2_mt_posix5sinks4sinkE@Base 1.4.10
 _ZTIN5boost3log11v2_mt_posix7sources12basic_loggerIcNS2_18severity_logger_mtINS1_7trivial14severity_levelEEENS2_18multi_thread_modelINS1_3aux14light_rw_mutexEEEEE@Base 1.4.10
 _ZTIN5boost3log11v2_mt_posix7sources18multi_thread_modelINS1_3aux14light_rw_mutexEEE@Base 1.4.10
 _ZTIN5boost3log11v2_mt_posix7sources18severity_logger_mtINS1_7trivial14severity_levelEEE@Base 1.4.10
 _ZTIN5boost3log11v2_mt_posix7sources21basic_severity_loggerINS2_12basic_loggerIcNS2_18severity_logger_mtINS1_7trivial14severity_levelEEENS2_18multi_thread_modelINS1_3aux14light_rw_mutexEEEEES7_EE@Base 1.4.10
 _ZTIN5boost3log11v2_mt_posix7sources22basic_composite_loggerIcNS2_18severity_logger_mtINS1_7trivial14severity_levelEEENS2_18multi_thread_modelINS1_3aux14light_rw_mutexEEENS2_8featuresIJNS2_8severityIS6_EEEEEEE@Base 1.4.10
 _ZTIN5boost3log11v2_mt_posix7sources3aux14severity_levelINS1_7trivial14severity_levelEE4implE@Base 1.4.10
 _ZTIN5boost3log11v2_mt_posix7trivial14severity_levelE@Base 1.4.10
 _ZTIN5boost3log11v2_mt_posix9attribute4implE@Base 1.4.10
 _ZTIN5boost4asio10io_context13executor_typeE@Base 1.4.10
 _ZTIN5boost4asio12bad_executorE@Base 1.4.10
 _ZTIN5boost4asio15basic_streambufISaIcEEE@Base 1.4.10
 _ZTIN5boost4asio17execution_context7serviceE@Base 1.4.10
 _ZTIN5boost4asio21invalid_service_ownerE@Base 1.4.10
 _ZTIN5boost4asio22service_already_existsE@Base 1.4.10
 _ZTIN5boost4asio2ip16bad_address_castE@Base 1.4.10
 _ZTIN5boost4asio6detail11noncopyableE@Base 1.4.10
 _ZTIN5boost4asio6detail11timer_queueINS0_11time_traitsINS_10posix_time5ptimeEEEEE@Base 1.4.10
 _ZTIN5boost4asio6detail11timer_queueINS1_28forwarding_posix_time_traitsEEE@Base 1.4.10
 _ZTIN5boost4asio6detail12posix_thread4funcINS1_9scheduler15thread_functionEEE@Base 1.4.10
 _ZTIN5boost4asio6detail12posix_thread9func_baseE@Base 1.4.10
 _ZTIN5boost4asio6detail13epoll_reactorE@Base 1.4.10
 _ZTIN5boost4asio6detail14thread_contextE@Base 1.4.10
 _ZTIN5boost4asio6detail14typeid_wrapperINS1_13epoll_reactorEEE@Base 1.4.10
 _ZTIN5boost4asio6detail14typeid_wrapperINS1_22deadline_timer_serviceINS0_11time_traitsINS_10posix_time5ptimeEEEEEEE@Base 1.4.10
 _ZTIN5boost4asio6detail14typeid_wrapperINS1_23reactive_socket_serviceINS0_2ip4icmpEEEEE@Base 1.4.10
 _ZTIN5boost4asio6detail14typeid_wrapperINS1_9schedulerEEE@Base 1.4.10
 _ZTIN5boost4asio6detail16timer_queue_baseE@Base 1.4.10
 _ZTIN5boost4asio6detail22deadline_timer_serviceINS0_11time_traitsINS_10posix_time5ptimeEEEEE@Base 1.4.10
 _ZTIN5boost4asio6detail23reactive_socket_serviceINS0_2ip4icmpEEE@Base 1.4.10
 _ZTIN5boost4asio6detail28reactive_socket_service_baseE@Base 1.4.10
 _ZTIN5boost4asio6detail30execution_context_service_baseINS1_13epoll_reactorEEE@Base 1.4.10
 _ZTIN5boost4asio6detail30execution_context_service_baseINS1_22deadline_timer_serviceINS0_11time_traitsINS_10posix_time5ptimeEEEEEEE@Base 1.4.10
 _ZTIN5boost4asio6detail30execution_context_service_baseINS1_23reactive_socket_serviceINS0_2ip4icmpEEEEE@Base 1.4.10
 _ZTIN5boost4asio6detail30execution_context_service_baseINS1_9schedulerEEE@Base 1.4.10
 _ZTIN5boost4asio6detail9schedulerE@Base 1.4.10
 _ZTIN5boost4asio8executor4implINS0_10io_context13executor_typeESaIvEEE@Base 1.4.10
 _ZTIN5boost4asio8executor9impl_baseE@Base 1.4.10
 _ZTIN5boost6detail15sp_counted_baseE@Base 1.4.10
 _ZTIN5boost6detail17sp_counted_impl_pINS_3log11v2_mt_posix5sinks16synchronous_sinkINS4_26basic_text_ostream_backendIcEEEEEE@Base 1.4.10
 _ZTIN5boost6detail17sp_counted_impl_pINS_9iostreams16symmetric_filterINS2_6detail20zlib_compressor_implISaIcEEES6_E4implEEE@Base 1.4.10
 _ZTIN5boost6detail17sp_counted_impl_pINS_9iostreams16symmetric_filterINS2_6detail21bzip2_compressor_implISaIcEEES6_E4implEEE@Base 1.4.10
 _ZTIN5boost6detail17sp_counted_impl_pINS_9iostreams6detail10chain_baseINS2_5chainINS2_6outputEcSt11char_traitsIcESaIcEEEcS8_S9_S6_E10chain_implEEE@Base 1.4.10
 _ZTIN5boost6detail18sp_counted_impl_pdIPNS_2io18basic_altstringbufIcSt11char_traitsIcESaIcEEENS2_22basic_oaltstringstreamIcS5_S6_E5No_OpEEE@Base 1.4.10
 _ZTIN5boost6detail18sp_counted_impl_pdIPNS_3log11v2_mt_posix5sinks26basic_text_ostream_backendIcEENS0_13sp_ms_deleterIS6_EEEE@Base 1.4.10
 _ZTIN5boost6detail18sp_counted_impl_pdIPNS_3log11v2_mt_posix7sources3aux13logger_holderINS4_18severity_logger_mtINS3_7trivial14severity_levelEEEEENS0_13sp_ms_deleterISB_EEEE@Base 1.4.10
 _ZTIN5boost6detail18sp_counted_impl_pdIPSoNS_12null_deleterEEE@Base 1.4.10
 _ZTIN5boost6system12system_errorE@Base 1.4.10
 _ZTIN5boost6system14error_categoryE@Base 1.4.10
 _ZTIN5boost6system6detail12std_categoryE@Base 1.4.10
 _ZTIN5boost6system6detail21system_error_categoryE@Base 1.4.10
 _ZTIN5boost6system6detail22generic_error_categoryE@Base 1.4.10
 _ZTIN5boost9algorithm6detail13token_finderFINS1_10is_any_ofFIcEEEE@Base 1.4.10
 _ZTIN5boost9date_time9base_timeINS_10posix_time5ptimeENS0_19counted_time_systemINS0_16counted_time_repINS2_33millisec_posix_time_system_configEEEEEEE@Base 1.4.10
 _ZTIN5boost9exceptionE@Base 1.4.10
 _ZTIN5boost9gregorian16bad_day_of_monthE@Base 1.4.10
 _ZTIN5boost9gregorian8bad_yearE@Base 1.4.10
 _ZTIN5boost9gregorian9bad_monthE@Base 1.4.10
 _ZTIN5boost9iostreams13stream_bufferINS0_17basic_null_deviceIcNS0_6outputEEESt11char_traitsIcESaIcES3_EE@Base 1.4.10
 _ZTIN5boost9iostreams13stream_bufferINS0_21basic_gzip_compressorISaIcEEESt11char_traitsIcES3_NS0_6outputEEE@Base 1.4.10
 _ZTIN5boost9iostreams13stream_bufferINS0_22basic_bzip2_compressorISaIcEEESt11char_traitsIcES3_NS0_6outputEEE@Base 1.4.10
 _ZTIN5boost9iostreams13stream_bufferINS0_6detail12mode_adapterINS0_6outputESoEESt11char_traitsIcESaIcES4_EE@Base 1.4.10
 _ZTIN5boost9iostreams14access_controlINS0_6detail12chain_clientINS0_5chainINS0_6outputEcSt11char_traitsIcESaIcEEEEENS0_7public_ENS2_4pub_ISA_EEEE@Base 1.4.10
 _ZTIN5boost9iostreams16filtering_streamINS0_6outputEcSt11char_traitsIcESaIcENS0_7public_EEE@Base 1.4.10
 _ZTIN5boost9iostreams16symmetric_filterINS0_6detail20zlib_compressor_implISaIcEEES4_EE@Base 1.4.10
 _ZTIN5boost9iostreams16symmetric_filterINS0_6detail21bzip2_compressor_implISaIcEEES4_EE@Base 1.4.10
 _ZTIN5boost9iostreams17basic_null_deviceIcNS0_6outputEEE@Base 1.4.10
 _ZTIN5boost9iostreams21basic_gzip_compressorISaIcEEE@Base 1.4.10
 _ZTIN5boost9iostreams21basic_zlib_compressorISaIcEEE@Base 1.4.10
 _ZTIN5boost9iostreams22basic_bzip2_compressorISaIcEEE@Base 1.4.10
 _ZTIN5boost9iostreams6detail12chain_clientINS0_5chainINS0_6outputEcSt11char_traitsIcESaIcEEEEE@Base 1.4.10
 _ZTIN5boost9iostreams6detail12mode_adapterINS0_6outputESoEE@Base 1.4.10
 _ZTIN5boost9iostreams6detail16linked_streambufIcSt11char_traitsIcEEE@Base 1.4.10
 _ZTIN5boost9iostreams6detail18indirect_streambufINS0_17basic_null_deviceIcNS0_6outputEEESt11char_traitsIcESaIcES4_EE@Base 1.4.10
 _ZTIN5boost9iostreams6detail18indirect_streambufINS0_21basic_gzip_compressorISaIcEEESt11char_traitsIcES4_NS0_6outputEEE@Base 1.4.10
 _ZTIN5boost9iostreams6detail18indirect_streambufINS0_22basic_bzip2_compressorISaIcEEESt11char_traitsIcES4_NS0_6outputEEE@Base 1.4.10
 _ZTIN5boost9iostreams6detail18indirect_streambufINS1_12mode_adapterINS0_6outputESoEESt11char_traitsIcESaIcES4_EE@Base 1.4.10
 _ZTIN5boost9iostreams6detail21filtering_stream_baseINS0_5chainINS0_6outputEcSt11char_traitsIcESaIcEEENS0_7public_EEE@Base 1.4.10
 _ZTIN5boost9iostreams6detail4pub_INS1_12chain_clientINS0_5chainINS0_6outputEcSt11char_traitsIcESaIcEEEEEEE@Base 1.4.10
 _ZTINSt6thread11_State_implINS_8_InvokerISt5tupleIJM10TracerouteFvvEPS3_EEEEEE@Base 1.4.10
 _ZTINSt7__cxx1112basic_stringIcSt11char_traitsIcESaIcEEE@Base 1.4.10
 _ZTINSt7__cxx1112basic_stringIwSt11char_traitsIwESaIwEEE@Base 1.4.10
 _ZTS10Traceroute@Base 1.4.10
 _ZTS13ResultsWriter@Base 1.4.10
 _ZTS4Ping@Base 1.4.10
 _ZTS7Service@Base 1.4.10
 _ZTS8MyLogger@Base 1.4.10
 _ZTSN5boost10posix_time5ptimeE@Base 1.4.10
 _ZTSN5boost10wrapexceptINS_17bad_function_callEEE@Base 1.4.10
 _ZTSN5boost10wrapexceptINS_21thread_resource_errorEEE@Base 1.4.10
 _ZTSN5boost10wrapexceptINS_2io12too_few_argsEEE@Base 1.4.10
 _ZTSN5boost10wrapexceptINS_2io13too_many_argsEEE@Base 1.4.10
 _ZTSN5boost10wrapexceptINS_2io17bad_format_stringEEE@Base 1.4.10
 _ZTSN5boost10wrapexceptINS_4asio12bad_executorEEE@Base 1.4.10
 _ZTSN5boost10wrapexceptINS_4asio21invalid_service_ownerEEE@Base 1.4.10
 _ZTSN5boost10wrapexceptINS_4asio22service_already_existsEEE@Base 1.4.10
 _ZTSN5boost10wrapexceptINS_4asio2ip16bad_address_castEEE@Base 1.4.10
 _ZTSN5boost10wrapexceptINS_6system12system_errorEEE@Base 1.4.10
 _ZTSN5boost10wrapexceptINS_9gregorian16bad_day_of_monthEEE@Base 1.4.10
 _ZTSN5boost10wrapexceptINS_9gregorian8bad_yearEEE@Base 1.4.10
 _ZTSN5boost10wrapexceptINS_9gregorian9bad_monthEEE@Base 1.4.10
 _ZTSN5boost10wrapexceptINSt8ios_base7failureB5cxx11EEE@Base 1.4.10
 _ZTSN5boost10wrapexceptISt11logic_errorEE@Base 1.4.10
 _ZTSN5boost10wrapexceptISt12length_errorEE@Base 1.4.10
 _ZTSN5boost10wrapexceptISt13runtime_errorEE@Base 1.4.10
 _ZTSN5boost12interprocess15basic_bufferbufIcSt11char_traitsIcEEE@Base 1.4.10
 _ZTSN5boost12interprocess18basic_bufferstreamIcSt11char_traitsIcEEE@Base 1.4.10
 _ZTSN5boost12null_deleterE@Base 1.4.10
 _ZTSN5boost12sp_adl_block21intrusive_ref_counterINS_3log11v2_mt_posix9attribute4implENS0_19thread_safe_counterEEE@Base 1.4.10
 _ZTSN5boost14operators_impl16operators_detail10empty_baseINS_10posix_time5ptimeEEE@Base 1.4.10
 _ZTSN5boost14operators_impl19equality_comparableINS_10posix_time5ptimeES3_NS0_16operators_detail10empty_baseIS3_EENS4_7false_tEEE@Base 1.4.10
 _ZTSN5boost14operators_impl20equality_comparable1INS_10posix_time5ptimeENS0_16operators_detail10empty_baseIS3_EEEE@Base 1.4.10
 _ZTSN5boost14operators_impl20less_than_comparableINS_10posix_time5ptimeENS0_19equality_comparableIS3_S3_NS0_16operators_detail10empty_baseIS3_EENS5_7false_tEEES7_NS5_6true_tEEE@Base 1.4.10
 _ZTSN5boost14operators_impl21less_than_comparable1INS_10posix_time5ptimeENS0_19equality_comparableIS3_S3_NS0_16operators_detail10empty_baseIS3_EENS5_7false_tEEEEE@Base 1.4.10
 _ZTSN5boost16base_from_memberINS_10shared_ptrINS_2io18basic_altstringbufIcSt11char_traitsIcESaIcEEEEELi0EEE@Base 1.4.10
 _ZTSN5boost16exception_detail10clone_baseE@Base 1.4.10
 _ZTSN5boost16exception_detail10clone_implINS0_19error_info_injectorINS_17bad_function_callEEEEE@Base 1.4.10
 _ZTSN5boost16exception_detail10clone_implINS0_19error_info_injectorINS_21thread_resource_errorEEEEE@Base 1.4.10
 _ZTSN5boost16exception_detail10clone_implINS0_19error_info_injectorINS_2io12too_few_argsEEEEE@Base 1.4.10
 _ZTSN5boost16exception_detail10clone_implINS0_19error_info_injectorINS_2io13too_many_argsEEEEE@Base 1.4.10
 _ZTSN5boost16exception_detail10clone_implINS0_19error_info_injectorINS_2io17bad_format_stringEEEEE@Base 1.4.10
 _ZTSN5boost16exception_detail10clone_implINS0_19error_info_injectorINS_4asio12bad_executorEEEEE@Base 1.4.10
 _ZTSN5boost16exception_detail10clone_implINS0_19error_info_injectorINS_4asio21invalid_service_ownerEEEEE@Base 1.4.10
 _ZTSN5boost16exception_detail10clone_implINS0_19error_info_injectorINS_4asio22service_already_existsEEEEE@Base 1.4.10
 _ZTSN5boost16exception_detail10clone_implINS0_19error_info_injectorINS_4asio2ip16bad_address_castEEEEE@Base 1.4.10
 _ZTSN5boost16exception_detail10clone_implINS0_19error_info_injectorINS_6system12system_errorEEEEE@Base 1.4.10
 _ZTSN5boost16exception_detail10clone_implINS0_19error_info_injectorINS_9gregorian16bad_day_of_monthEEEEE@Base 1.4.10
 _ZTSN5boost16exception_detail10clone_implINS0_19error_info_injectorINS_9gregorian8bad_yearEEEEE@Base 1.4.10
 _ZTSN5boost16exception_detail10clone_implINS0_19error_info_injectorINS_9gregorian9bad_monthEEEEE@Base 1.4.10
 _ZTSN5boost16exception_detail10clone_implINS0_19error_info_injectorINSt8ios_base7failureB5cxx11EEEEE@Base 1.4.10
 _ZTSN5boost16exception_detail10clone_implINS0_19error_info_injectorISt11logic_errorEEEE@Base 1.4.10
 _ZTSN5boost16exception_detail10clone_implINS0_19error_info_injectorISt12length_errorEEEE@Base 1.4.10
 _ZTSN5boost16exception_detail10clone_implINS0_19error_info_injectorISt13runtime_errorEEEE@Base 1.4.10
 _ZTSN5boost16exception_detail19error_info_injectorINS_17bad_function_callEEE@Base 1.4.10
 _ZTSN5boost16exception_detail19error_info_injectorINS_21thread_resource_errorEEE@Base 1.4.10
 _ZTSN5boost16exception_detail19error_info_injectorINS_2io12too_few_argsEEE@Base 1.4.10
 _ZTSN5boost16exception_detail19error_info_injectorINS_2io13too_many_argsEEE@Base 1.4.10
 _ZTSN5boost16exception_detail19error_info_injectorINS_2io17bad_format_stringEEE@Base 1.4.10
 _ZTSN5boost16exception_detail19error_info_injectorINS_4asio12bad_executorEEE@Base 1.4.10
 _ZTSN5boost16exception_detail19error_info_injectorINS_4asio21invalid_service_ownerEEE@Base 1.4.10
 _ZTSN5boost16exception_detail19error_info_injectorINS_4asio22service_already_existsEEE@Base 1.4.10
 _ZTSN5boost16exception_detail19error_info_injectorINS_4asio2ip16bad_address_castEEE@Base 1.4.10
 _ZTSN5boost16exception_detail19error_info_injectorINS_6system12system_errorEEE@Base 1.4.10
 _ZTSN5boost16exception_detail19error_info_injectorINS_9gregorian16bad_day_of_monthEEE@Base 1.4.10
 _ZTSN5boost16exception_detail19error_info_injectorINS_9gregorian8bad_yearEEE@Base 1.4.10
 _ZTSN5boost16exception_detail19error_info_injectorINS_9gregorian9bad_monthEEE@Base 1.4.10
 _ZTSN5boost16exception_detail19error_info_injectorINSt8ios_base7failureB5cxx11EEE@Base 1.4.10
 _ZTSN5boost16exception_detail19error_info_injectorISt11logic_errorEE@Base 1.4.10
 _ZTSN5boost16exception_detail19error_info_injectorISt12length_errorEE@Base 1.4.10
 _ZTSN5boost16exception_detail19error_info_injectorISt13runtime_errorEE@Base 1.4.10
 _ZTSN5boost16thread_exceptionE@Base 1.4.10
 _ZTSN5boost17bad_function_callE@Base 1.4.10
 _ZTSN5boost18thread_interruptedE@Base 1.4.10
 _ZTSN5boost21thread_resource_errorE@Base 1.4.10
 _ZTSN5boost2io12format_errorE@Base 1.4.10
 _ZTSN5boost2io12too_few_argsE@Base 1.4.10
 _ZTSN5boost2io13too_many_argsE@Base 1.4.10
 _ZTSN5boost2io17bad_format_stringE@Base 1.4.10
 _ZTSN5boost2io18basic_altstringbufIcSt11char_traitsIcESaIcEEE@Base 1.4.10
 _ZTSN5boost2io22basic_oaltstringstreamIcSt11char_traitsIcESaIcEE5No_OpE@Base 1.4.10
 _ZTSN5boost2io22basic_oaltstringstreamIcSt11char_traitsIcESaIcEEE@Base 1.4.10
 _ZTSN5boost3log11v2_mt_posix10attributes11basic_clockINS2_17local_time_traitsEE4implE@Base 1.4.10
 _ZTSN5boost3log11v2_mt_posix10attributes20attribute_value_implINS1_7trivial14severity_levelEEE@Base 1.4.10
 _ZTSN5boost3log11v2_mt_posix10attributes20attribute_value_implINS_10posix_time5ptimeEEE@Base 1.4.10
 _ZTSN5boost3log11v2_mt_posix15attribute_value4implE@Base 1.4.10
 _ZTSN5boost3log11v2_mt_posix3aux22basic_ostringstreambufIcSt11char_traitsIcESaIcEEE@Base 1.4.10
 _ZTSN5boost3log11v2_mt_posix3aux27date_format_parser_callbackIcEE@Base 1.4.10
 _ZTSN5boost3log11v2_mt_posix3aux27time_format_parser_callbackIcEE@Base 1.4.10
 _ZTSN5boost3log11v2_mt_posix3aux32date_time_format_parser_callbackIcEE@Base 1.4.10
 _ZTSN5boost3log11v2_mt_posix3aux33decomposed_time_formatter_builderINS1_11expressions3aux41date_time_formatter_generator_traits_implINS_10posix_time5ptimeEcE9formatterEcEE@Base 1.4.10
 _ZTSN5boost3log11v2_mt_posix5sinks16synchronous_sinkINS2_26basic_text_ostream_backendIcEEEE@Base 1.4.10
 _ZTSN5boost3log11v2_mt_posix5sinks19basic_sink_frontendE@Base 1.4.10
 _ZTSN5boost3log11v2_mt_posix5sinks30basic_formatting_sink_frontendIcEE@Base 1.4.10
 _ZTSN5boost3log11v2_mt_posix5sinks4sinkE@Base 1.4.10
 _ZTSN5boost3log11v2_mt_posix7sources12basic_loggerIcNS2_18severity_logger_mtINS1_7trivial14severity_levelEEENS2_18multi_thread_modelINS1_3aux14light_rw_mutexEEEEE@Base 1.4.10
 _ZTSN5boost3log11v2_mt_posix7sources18multi_thread_modelINS1_3aux14light_rw_mutexEEE@Base 1.4.10
 _ZTSN5boost3log11v2_mt_posix7sources18severity_logger_mtINS1_7trivial14severity_levelEEE@Base 1.4.10
 _ZTSN5boost3log11v2_mt_posix7sources21basic_severity_loggerINS2_12basic_loggerIcNS2_18severity_logger_mtINS1_7trivial14severity_levelEEENS2_18multi_thread_modelINS1_3aux14light_rw_mutexEEEEES7_EE@Base 1.4.10
 _ZTSN5boost3log11v2_mt_posix7sources22basic_composite_loggerIcNS2_18severity_logger_mtINS1_7trivial14severity_levelEEENS2_18multi_thread_modelINS1_3aux14light_rw_mutexEEENS2_8featuresIJNS2_8severityIS6_EEEEEEE@Base 1.4.10
 _ZTSN5boost3log11v2_mt_posix7sources3aux14severity_levelINS1_7trivial14severity_levelEE4implE@Base 1.4.10
 _ZTSN5boost3log11v2_mt_posix7trivial14severity_levelE@Base 1.4.10
 _ZTSN5boost3log11v2_mt_posix9attribute4implE@Base 1.4.10
 _ZTSN5boost4asio10io_context13executor_typeE@Base 1.4.10
 _ZTSN5boost4asio12bad_executorE@Base 1.4.10
 _ZTSN5boost4asio15basic_streambufISaIcEEE@Base 1.4.10
 _ZTSN5boost4asio17execution_context7serviceE@Base 1.4.10
 _ZTSN5boost4asio21invalid_service_ownerE@Base 1.4.10
 _ZTSN5boost4asio22service_already_existsE@Base 1.4.10
 _ZTSN5boost4asio2ip16bad_address_castE@Base 1.4.10
 _ZTSN5boost4asio6detail11noncopyableE@Base 1.4.10
 _ZTSN5boost4asio6detail11timer_queueINS0_11time_traitsINS_10posix_time5ptimeEEEEE@Base 1.4.10
 _ZTSN5boost4asio6detail11timer_queueINS1_28forwarding_posix_time_traitsEEE@Base 1.4.10
 _ZTSN5boost4asio6detail12posix_thread4funcINS1_9scheduler15thread_functionEEE@Base 1.4.10
 _ZTSN5boost4asio6detail12posix_thread9func_baseE@Base 1.4.10
 _ZTSN5boost4asio6detail13epoll_reactorE@Base 1.4.10
 _ZTSN5boost4asio6detail14thread_contextE@Base 1.4.10
 _ZTSN5boost4asio6detail14typeid_wrapperINS1_13epoll_reactorEEE@Base 1.4.10
 _ZTSN5boost4asio6detail14typeid_wrapperINS1_22deadline_timer_serviceINS0_11time_traitsINS_10posix_time5ptimeEEEEEEE@Base 1.4.10
 _ZTSN5boost4asio6detail14typeid_wrapperINS1_23reactive_socket_serviceINS0_2ip4icmpEEEEE@Base 1.4.10
 _ZTSN5boost4asio6detail14typeid_wrapperINS1_9schedulerEEE@Base 1.4.10
 _ZTSN5boost4asio6detail16timer_queue_baseE@Base 1.4.10
 _ZTSN5boost4asio6detail22deadline_timer_serviceINS0_11time_traitsINS_10posix_time5ptimeEEEEE@Base 1.4.10
 _ZTSN5boost4asio6detail23reactive_socket_serviceINS0_2ip4icmpEEE@Base 1.4.10
 _ZTSN5boost4asio6detail28reactive_socket_service_baseE@Base 1.4.10
 _ZTSN5boost4asio6detail30execution_context_service_baseINS1_13epoll_reactorEEE@Base 1.4.10
 _ZTSN5boost4asio6detail30execution_context_service_baseINS1_22deadline_timer_serviceINS0_11time_traitsINS_10posix_time5ptimeEEEEEEE@Base 1.4.10
 _ZTSN5boost4asio6detail30execution_context_service_baseINS1_23reactive_socket_serviceINS0_2ip4icmpEEEEE@Base 1.4.10
 _ZTSN5boost4asio6detail30execution_context_service_baseINS1_9schedulerEEE@Base 1.4.10
 _ZTSN5boost4asio6detail9schedulerE@Base 1.4.10
 _ZTSN5boost4asio8executor4implINS0_10io_context13executor_typeESaIvEEE@Base 1.4.10
 _ZTSN5boost4asio8executor9impl_baseE@Base 1.4.10
 _ZTSN5boost6detail13sp_ms_deleterINS_3log11v2_mt_posix5sinks26basic_text_ostream_backendIcEEEE@Base 1.4.10
 _ZTSN5boost6detail13sp_ms_deleterINS_3log11v2_mt_posix7sources3aux13logger_holderINS4_18severity_logger_mtINS3_7trivial14severity_levelEEEEEEE@Base 1.4.10
 _ZTSN5boost6detail15sp_counted_baseE@Base 1.4.10
 _ZTSN5boost6detail17sp_counted_impl_pINS_3log11v2_mt_posix5sinks16synchronous_sinkINS4_26basic_text_ostream_backendIcEEEEEE@Base 1.4.10
 _ZTSN5boost6detail17sp_counted_impl_pINS_9iostreams16symmetric_filterINS2_6detail20zlib_compressor_implISaIcEEES6_E4implEEE@Base 1.4.10
 _ZTSN5boost6detail17sp_counted_impl_pINS_9iostreams16symmetric_filterINS2_6detail21bzip2_compressor_implISaIcEEES6_E4implEEE@Base 1.4.10
 _ZTSN5boost6detail17sp_counted_impl_pINS_9iostreams6detail10chain_baseINS2_5chainINS2_6outputEcSt11char_traitsIcESaIcEEEcS8_S9_S6_E10chain_implEEE@Base 1.4.10
 _ZTSN5boost6detail18sp_counted_impl_pdIPNS_2io18basic_altstringbufIcSt11char_traitsIcESaIcEEENS2_22basic_oaltstringstreamIcS5_S6_E5No_OpEEE@Base 1.4.10
 _ZTSN5boost6detail18sp_counted_impl_pdIPNS_3log11v2_mt_posix5sinks26basic_text_ostream_backendIcEENS0_13sp_ms_deleterIS6_EEEE@Base 1.4.10
 _ZTSN5boost6detail18sp_counted_impl_pdIPNS_3log11v2_mt_posix7sources3aux13logger_holderINS4_18severity_logger_mtINS3_7trivial14severity_levelEEEEENS0_13sp_ms_deleterISB_EEEE@Base 1.4.10
 _ZTSN5boost6detail18sp_counted_impl_pdIPSoNS_12null_deleterEEE@Base 1.4.10
 _ZTSN5boost6system12system_errorE@Base 1.4.10
 _ZTSN5boost6system14error_categoryE@Base 1.4.10
 _ZTSN5boost6system6detail12std_categoryE@Base 1.4.10
 _ZTSN5boost6system6detail21system_error_categoryE@Base 1.4.10
 _ZTSN5boost6system6detail22generic_error_categoryE@Base 1.4.10
 _ZTSN5boost9algorithm6detail13token_finderFINS1_10is_any_ofFIcEEEE@Base 1.4.10
 _ZTSN5boost9date_time9base_timeINS_10posix_time5ptimeENS0_19counted_time_systemINS0_16counted_time_repINS2_33millisec_posix_time_system_configEEEEEEE@Base 1.4.10
 _ZTSN5boost9exceptionE@Base 1.4.10
 _ZTSN5boost9gregorian16bad_day_of_monthE@Base 1.4.10
 _ZTSN5boost9gregorian8bad_yearE@Base 1.4.10
 _ZTSN5boost9gregorian9bad_monthE@Base 1.4.10
 _ZTSN5boost9iostreams13stream_bufferINS0_17basic_null_deviceIcNS0_6outputEEESt11char_traitsIcESaIcES3_EE@Base 1.4.10
 _ZTSN5boost9iostreams13stream_bufferINS0_21basic_gzip_compressorISaIcEEESt11char_traitsIcES3_NS0_6outputEEE@Base 1.4.10
 _ZTSN5boost9iostreams13stream_bufferINS0_22basic_bzip2_compressorISaIcEEESt11char_traitsIcES3_NS0_6outputEEE@Base 1.4.10
 _ZTSN5boost9iostreams13stream_bufferINS0_6detail12mode_adapterINS0_6outputESoEESt11char_traitsIcESaIcES4_EE@Base 1.4.10
 _ZTSN5boost9iostreams14access_controlINS0_6detail12chain_clientINS0_5chainINS0_6outputEcSt11char_traitsIcESaIcEEEEENS0_7public_ENS2_4pub_ISA_EEEE@Base 1.4.10
 _ZTSN5boost9iostreams16filtering_streamINS0_6outputEcSt11char_traitsIcESaIcENS0_7public_EEE@Base 1.4.10
 _ZTSN5boost9iostreams16symmetric_filterINS0_6detail20zlib_compressor_implISaIcEEES4_EE@Base 1.4.10
 _ZTSN5boost9iostreams16symmetric_filterINS0_6detail21bzip2_compressor_implISaIcEEES4_EE@Base 1.4.10
 _ZTSN5boost9iostreams17basic_null_deviceIcNS0_6outputEEE@Base 1.4.10
 _ZTSN5boost9iostreams21basic_gzip_compressorISaIcEEE@Base 1.4.10
 _ZTSN5boost9iostreams21basic_zlib_compressorISaIcEEE@Base 1.4.10
 _ZTSN5boost9iostreams22basic_bzip2_compressorISaIcEEE@Base 1.4.10
 _ZTSN5boost9iostreams6detail12chain_clientINS0_5chainINS0_6outputEcSt11char_traitsIcESaIcEEEEE@Base 1.4.10
 _ZTSN5boost9iostreams6detail12mode_adapterINS0_6outputESoEE@Base 1.4.10
 _ZTSN5boost9iostreams6detail16linked_streambufIcSt11char_traitsIcEEE@Base 1.4.10
 _ZTSN5boost9iostreams6detail18indirect_streambufINS0_17basic_null_deviceIcNS0_6outputEEESt11char_traitsIcESaIcES4_EE@Base 1.4.10
 _ZTSN5boost9iostreams6detail18indirect_streambufINS0_21basic_gzip_compressorISaIcEEESt11char_traitsIcES4_NS0_6outputEEE@Base 1.4.10
 _ZTSN5boost9iostreams6detail18indirect_streambufINS0_22basic_bzip2_compressorISaIcEEESt11char_traitsIcES4_NS0_6outputEEE@Base 1.4.10
 _ZTSN5boost9iostreams6detail18indirect_streambufINS1_12mode_adapterINS0_6outputESoEESt11char_traitsIcESaIcES4_EE@Base 1.4.10
 _ZTSN5boost9iostreams6detail21filtering_stream_baseINS0_5chainINS0_6outputEcSt11char_traitsIcESaIcEEENS0_7public_EEE@Base 1.4.10
 _ZTSN5boost9iostreams6detail4pub_INS1_12chain_clientINS0_5chainINS0_6outputEcSt11char_traitsIcESaIcEEEEEEE@Base 1.4.10
 _ZTSNSt6thread11_State_implINS_8_InvokerISt5tupleIJM10TracerouteFvvEPS3_EEEEEE@Base 1.4.10
 _ZTSNSt7__cxx1112basic_stringIcSt11char_traitsIcESaIcEEE@Base 1.4.10
 _ZTSNSt7__cxx1112basic_stringIwSt11char_traitsIwESaIwEEE@Base 1.4.10
 _ZTTN5boost10wrapexceptINS_17bad_function_callEEE@Base 1.4.10
 _ZTTN5boost10wrapexceptINS_21thread_resource_errorEEE@Base 1.4.10
 _ZTTN5boost10wrapexceptINS_2io12too_few_argsEEE@Base 1.4.10
 _ZTTN5boost10wrapexceptINS_2io13too_many_argsEEE@Base 1.4.10
 _ZTTN5boost10wrapexceptINS_2io17bad_format_stringEEE@Base 1.4.10
 _ZTTN5boost10wrapexceptINS_4asio12bad_executorEEE@Base 1.4.10
 _ZTTN5boost10wrapexceptINS_4asio21invalid_service_ownerEEE@Base 1.4.10
 _ZTTN5boost10wrapexceptINS_4asio22service_already_existsEEE@Base 1.4.10
 _ZTTN5boost10wrapexceptINS_4asio2ip16bad_address_castEEE@Base 1.4.10
 _ZTTN5boost10wrapexceptINS_6system12system_errorEEE@Base 1.4.10
 _ZTTN5boost10wrapexceptINS_9gregorian16bad_day_of_monthEEE@Base 1.4.10
 _ZTTN5boost10wrapexceptINS_9gregorian8bad_yearEEE@Base 1.4.10
 _ZTTN5boost10wrapexceptINS_9gregorian9bad_monthEEE@Base 1.4.10
 _ZTTN5boost10wrapexceptINSt8ios_base7failureB5cxx11EEE@Base 1.4.10
 _ZTTN5boost10wrapexceptISt11logic_errorEE@Base 1.4.10
 _ZTTN5boost10wrapexceptISt12length_errorEE@Base 1.4.10
 _ZTTN5boost10wrapexceptISt13runtime_errorEE@Base 1.4.10
 _ZTTN5boost12interprocess18basic_bufferstreamIcSt11char_traitsIcEEE@Base 1.4.10
 _ZTTN5boost16exception_detail10clone_implINS0_19error_info_injectorINS_17bad_function_callEEEEE@Base 1.4.10
 _ZTTN5boost16exception_detail10clone_implINS0_19error_info_injectorINS_21thread_resource_errorEEEEE@Base 1.4.10
 _ZTTN5boost16exception_detail10clone_implINS0_19error_info_injectorINS_2io12too_few_argsEEEEE@Base 1.4.10
 _ZTTN5boost16exception_detail10clone_implINS0_19error_info_injectorINS_2io13too_many_argsEEEEE@Base 1.4.10
 _ZTTN5boost16exception_detail10clone_implINS0_19error_info_injectorINS_2io17bad_format_stringEEEEE@Base 1.4.10
 _ZTTN5boost16exception_detail10clone_implINS0_19error_info_injectorINS_4asio12bad_executorEEEEE@Base 1.4.10
 _ZTTN5boost16exception_detail10clone_implINS0_19error_info_injectorINS_4asio21invalid_service_ownerEEEEE@Base 1.4.10
 _ZTTN5boost16exception_detail10clone_implINS0_19error_info_injectorINS_4asio22service_already_existsEEEEE@Base 1.4.10
 _ZTTN5boost16exception_detail10clone_implINS0_19error_info_injectorINS_4asio2ip16bad_address_castEEEEE@Base 1.4.10
 _ZTTN5boost16exception_detail10clone_implINS0_19error_info_injectorINS_6system12system_errorEEEEE@Base 1.4.10
 _ZTTN5boost16exception_detail10clone_implINS0_19error_info_injectorINS_9gregorian16bad_day_of_monthEEEEE@Base 1.4.10
 _ZTTN5boost16exception_detail10clone_implINS0_19error_info_injectorINS_9gregorian8bad_yearEEEEE@Base 1.4.10
 _ZTTN5boost16exception_detail10clone_implINS0_19error_info_injectorINS_9gregorian9bad_monthEEEEE@Base 1.4.10
 _ZTTN5boost16exception_detail10clone_implINS0_19error_info_injectorINSt8ios_base7failureB5cxx11EEEEE@Base 1.4.10
 _ZTTN5boost16exception_detail10clone_implINS0_19error_info_injectorISt11logic_errorEEEE@Base 1.4.10
 _ZTTN5boost16exception_detail10clone_implINS0_19error_info_injectorISt12length_errorEEEE@Base 1.4.10
 _ZTTN5boost16exception_detail10clone_implINS0_19error_info_injectorISt13runtime_errorEEEE@Base 1.4.10
 _ZTTN5boost2io22basic_oaltstringstreamIcSt11char_traitsIcESaIcEEE@Base 1.4.10
 _ZTTN5boost9iostreams16filtering_streamINS0_6outputEcSt11char_traitsIcESaIcENS0_7public_EEE@Base 1.4.10
 _ZTV10Traceroute@Base 1.4.10
 _ZTV13ResultsWriter@Base 1.4.10
 _ZTV4Ping@Base 1.4.10
 _ZTV7Service@Base 1.4.10
 _ZTVN5boost10wrapexceptINS_17bad_function_callEEE@Base 1.4.10
 _ZTVN5boost10wrapexceptINS_21thread_resource_errorEEE@Base 1.4.10
 _ZTVN5boost10wrapexceptINS_2io12too_few_argsEEE@Base 1.4.10
 _ZTVN5boost10wrapexceptINS_2io13too_many_argsEEE@Base 1.4.10
 _ZTVN5boost10wrapexceptINS_2io17bad_format_stringEEE@Base 1.4.10
 _ZTVN5boost10wrapexceptINS_4asio12bad_executorEEE@Base 1.4.10
 _ZTVN5boost10wrapexceptINS_4asio21invalid_service_ownerEEE@Base 1.4.10
 _ZTVN5boost10wrapexceptINS_4asio22service_already_existsEEE@Base 1.4.10
 _ZTVN5boost10wrapexceptINS_4asio2ip16bad_address_castEEE@Base 1.4.10
 _ZTVN5boost10wrapexceptINS_6system12system_errorEEE@Base 1.4.10
 _ZTVN5boost10wrapexceptINS_9gregorian16bad_day_of_monthEEE@Base 1.4.10
 _ZTVN5boost10wrapexceptINS_9gregorian8bad_yearEEE@Base 1.4.10
 _ZTVN5boost10wrapexceptINS_9gregorian9bad_monthEEE@Base 1.4.10
 _ZTVN5boost10wrapexceptINSt8ios_base7failureB5cxx11EEE@Base 1.4.10
 _ZTVN5boost10wrapexceptISt11logic_errorEE@Base 1.4.10
 _ZTVN5boost10wrapexceptISt12length_errorEE@Base 1.4.10
 _ZTVN5boost10wrapexceptISt13runtime_errorEE@Base 1.4.10
 _ZTVN5boost12interprocess15basic_bufferbufIcSt11char_traitsIcEEE@Base 1.4.10
 _ZTVN5boost12interprocess18basic_bufferstreamIcSt11char_traitsIcEEE@Base 1.4.10
 _ZTVN5boost16exception_detail10clone_baseE@Base 1.4.10
 _ZTVN5boost16exception_detail10clone_implINS0_19error_info_injectorINS_17bad_function_callEEEEE@Base 1.4.10
 _ZTVN5boost16exception_detail10clone_implINS0_19error_info_injectorINS_21thread_resource_errorEEEEE@Base 1.4.10
 _ZTVN5boost16exception_detail10clone_implINS0_19error_info_injectorINS_2io12too_few_argsEEEEE@Base 1.4.10
 _ZTVN5boost16exception_detail10clone_implINS0_19error_info_injectorINS_2io13too_many_argsEEEEE@Base 1.4.10
 _ZTVN5boost16exception_detail10clone_implINS0_19error_info_injectorINS_2io17bad_format_stringEEEEE@Base 1.4.10
 _ZTVN5boost16exception_detail10clone_implINS0_19error_info_injectorINS_4asio12bad_executorEEEEE@Base 1.4.10
 _ZTVN5boost16exception_detail10clone_implINS0_19error_info_injectorINS_4asio21invalid_service_ownerEEEEE@Base 1.4.10
 _ZTVN5boost16exception_detail10clone_implINS0_19error_info_injectorINS_4asio22service_already_existsEEEEE@Base 1.4.10
 _ZTVN5boost16exception_detail10clone_implINS0_19error_info_injectorINS_4asio2ip16bad_address_castEEEEE@Base 1.4.10
 _ZTVN5boost16exception_detail10clone_implINS0_19error_info_injectorINS_6system12system_errorEEEEE@Base 1.4.10
 _ZTVN5boost16exception_detail10clone_implINS0_19error_info_injectorINS_9gregorian16bad_day_of_monthEEEEE@Base 1.4.10
 _ZTVN5boost16exception_detail10clone_implINS0_19error_info_injectorINS_9gregorian8bad_yearEEEEE@Base 1.4.10
 _ZTVN5boost16exception_detail10clone_implINS0_19error_info_injectorINS_9gregorian9bad_monthEEEEE@Base 1.4.10
 _ZTVN5boost16exception_detail10clone_implINS0_19error_info_injectorINSt8ios_base7failureB5cxx11EEEEE@Base 1.4.10
 _ZTVN5boost16exception_detail10clone_implINS0_19error_info_injectorISt11logic_errorEEEE@Base 1.4.10
 _ZTVN5boost16exception_detail10clone_implINS0_19error_info_injectorISt12length_errorEEEE@Base 1.4.10
 _ZTVN5boost16exception_detail10clone_implINS0_19error_info_injectorISt13runtime_errorEEEE@Base 1.4.10
 _ZTVN5boost16exception_detail19error_info_injectorINS_17bad_function_callEEE@Base 1.4.10
 _ZTVN5boost16exception_detail19error_info_injectorINS_21thread_resource_errorEEE@Base 1.4.10
 _ZTVN5boost16exception_detail19error_info_injectorINS_2io12too_few_argsEEE@Base 1.4.10
 _ZTVN5boost16exception_detail19error_info_injectorINS_2io13too_many_argsEEE@Base 1.4.10
 _ZTVN5boost16exception_detail19error_info_injectorINS_2io17bad_format_stringEEE@Base 1.4.10
 _ZTVN5boost16exception_detail19error_info_injectorINS_4asio12bad_executorEEE@Base 1.4.10
 _ZTVN5boost16exception_detail19error_info_injectorINS_4asio21invalid_service_ownerEEE@Base 1.4.10
 _ZTVN5boost16exception_detail19error_info_injectorINS_4asio22service_already_existsEEE@Base 1.4.10
 _ZTVN5boost16exception_detail19error_info_injectorINS_4asio2ip16bad_address_castEEE@Base 1.4.10
 _ZTVN5boost16exception_detail19error_info_injectorINS_6system12system_errorEEE@Base 1.4.10
 _ZTVN5boost16exception_detail19error_info_injectorINS_9gregorian16bad_day_of_monthEEE@Base 1.4.10
 _ZTVN5boost16exception_detail19error_info_injectorINS_9gregorian8bad_yearEEE@Base 1.4.10
 _ZTVN5boost16exception_detail19error_info_injectorINS_9gregorian9bad_monthEEE@Base 1.4.10
 _ZTVN5boost16exception_detail19error_info_injectorINSt8ios_base7failureB5cxx11EEE@Base 1.4.10
 _ZTVN5boost16exception_detail19error_info_injectorISt11logic_errorEE@Base 1.4.10
 _ZTVN5boost16exception_detail19error_info_injectorISt12length_errorEE@Base 1.4.10
 _ZTVN5boost16exception_detail19error_info_injectorISt13runtime_errorEE@Base 1.4.10
 _ZTVN5boost16thread_exceptionE@Base 1.4.10
 _ZTVN5boost17bad_function_callE@Base 1.4.10
 _ZTVN5boost21thread_resource_errorE@Base 1.4.10
 _ZTVN5boost2io12format_errorE@Base 1.4.10
 _ZTVN5boost2io12too_few_argsE@Base 1.4.10
 _ZTVN5boost2io13too_many_argsE@Base 1.4.10
 _ZTVN5boost2io17bad_format_stringE@Base 1.4.10
 _ZTVN5boost2io18basic_altstringbufIcSt11char_traitsIcESaIcEEE@Base 1.4.10
 _ZTVN5boost2io22basic_oaltstringstreamIcSt11char_traitsIcESaIcEEE@Base 1.4.10
 _ZTVN5boost3log11v2_mt_posix10attributes11basic_clockINS2_17local_time_traitsEE4implE@Base 1.4.10
 _ZTVN5boost3log11v2_mt_posix10attributes20attribute_value_implINS1_7trivial14severity_levelEEE@Base 1.4.10
 _ZTVN5boost3log11v2_mt_posix10attributes20attribute_value_implINS_10posix_time5ptimeEEE@Base 1.4.10
 _ZTVN5boost3log11v2_mt_posix3aux22basic_ostringstreambufIcSt11char_traitsIcESaIcEEE@Base 1.4.10
 _ZTVN5boost3log11v2_mt_posix3aux33decomposed_time_formatter_builderINS1_11expressions3aux41date_time_formatter_generator_traits_implINS_10posix_time5ptimeEcE9formatterEcEE@Base 1.4.10
 _ZTVN5boost3log11v2_mt_posix5sinks16synchronous_sinkINS2_26basic_text_ostream_backendIcEEEE@Base 1.4.10
 _ZTVN5boost3log11v2_mt_posix5sinks19basic_sink_frontendE@Base 1.4.10
 _ZTVN5boost3log11v2_mt_posix5sinks30basic_formatting_sink_frontendIcEE@Base 1.4.10
 _ZTVN5boost3log11v2_mt_posix7sources3aux14severity_levelINS1_7trivial14severity_levelEE4implE@Base 1.4.10
 _ZTVN5boost4asio12bad_executorE@Base 1.4.10
 _ZTVN5boost4asio15basic_streambufISaIcEEE@Base 1.4.10
 _ZTVN5boost4asio21invalid_service_ownerE@Base 1.4.10
 _ZTVN5boost4asio22service_already_existsE@Base 1.4.10
 _ZTVN5boost4asio2ip16bad_address_castE@Base 1.4.10
 _ZTVN5boost4asio6detail11timer_queueINS0_11time_traitsINS_10posix_time5ptimeEEEEE@Base 1.4.10
 _ZTVN5boost4asio6detail11timer_queueINS1_28forwarding_posix_time_traitsEEE@Base 1.4.10
 _ZTVN5boost4asio6detail12posix_thread4funcINS1_9scheduler15thread_functionEEE@Base 1.4.10
 _ZTVN5boost4asio6detail13epoll_reactorE@Base 1.4.10
 _ZTVN5boost4asio6detail22deadline_timer_serviceINS0_11time_traitsINS_10posix_time5ptimeEEEEE@Base 1.4.10
 _ZTVN5boost4asio6detail23reactive_socket_serviceINS0_2ip4icmpEEE@Base 1.4.10
 _ZTVN5boost4asio6detail30execution_context_service_baseINS1_23reactive_socket_serviceINS0_2ip4icmpEEEEE@Base 1.4.10
 _ZTVN5boost4asio6detail9schedulerE@Base 1.4.10
 _ZTVN5boost4asio8executor4implINS0_10io_context13executor_typeESaIvEEE@Base 1.4.10
 _ZTVN5boost6detail17sp_counted_impl_pINS_3log11v2_mt_posix5sinks16synchronous_sinkINS4_26basic_text_ostream_backendIcEEEEEE@Base 1.4.10
 _ZTVN5boost6detail17sp_counted_impl_pINS_9iostreams16symmetric_filterINS2_6detail20zlib_compressor_implISaIcEEES6_E4implEEE@Base 1.4.10
 _ZTVN5boost6detail17sp_counted_impl_pINS_9iostreams16symmetric_filterINS2_6detail21bzip2_compressor_implISaIcEEES6_E4implEEE@Base 1.4.10
 _ZTVN5boost6detail17sp_counted_impl_pINS_9iostreams6detail10chain_baseINS2_5chainINS2_6outputEcSt11char_traitsIcESaIcEEEcS8_S9_S6_E10chain_implEEE@Base 1.4.10
 _ZTVN5boost6detail18sp_counted_impl_pdIPNS_2io18basic_altstringbufIcSt11char_traitsIcESaIcEEENS2_22basic_oaltstringstreamIcS5_S6_E5No_OpEEE@Base 1.4.10
 _ZTVN5boost6detail18sp_counted_impl_pdIPNS_3log11v2_mt_posix5sinks26basic_text_ostream_backendIcEENS0_13sp_ms_deleterIS6_EEEE@Base 1.4.10
 _ZTVN5boost6detail18sp_counted_impl_pdIPNS_3log11v2_mt_posix7sources3aux13logger_holderINS4_18severity_logger_mtINS3_7trivial14severity_levelEEEEENS0_13sp_ms_deleterISB_EEEE@Base 1.4.10
 _ZTVN5boost6detail18sp_counted_impl_pdIPSoNS_12null_deleterEEE@Base 1.4.10
 _ZTVN5boost6system12system_errorE@Base 1.4.10
 _ZTVN5boost6system14error_categoryE@Base 1.4.10
 _ZTVN5boost6system6detail12std_categoryE@Base 1.4.10
 _ZTVN5boost6system6detail21system_error_categoryE@Base 1.4.10
 _ZTVN5boost6system6detail22generic_error_categoryE@Base 1.4.10
 _ZTVN5boost9exceptionE@Base 1.4.10
 _ZTVN5boost9gregorian16bad_day_of_monthE@Base 1.4.10
 _ZTVN5boost9gregorian8bad_yearE@Base 1.4.10
 _ZTVN5boost9gregorian9bad_monthE@Base 1.4.10
 _ZTVN5boost9iostreams13stream_bufferINS0_17basic_null_deviceIcNS0_6outputEEESt11char_traitsIcESaIcES3_EE@Base 1.4.10
 _ZTVN5boost9iostreams13stream_bufferINS0_21basic_gzip_compressorISaIcEEESt11char_traitsIcES3_NS0_6outputEEE@Base 1.4.10
 _ZTVN5boost9iostreams13stream_bufferINS0_22basic_bzip2_compressorISaIcEEESt11char_traitsIcES3_NS0_6outputEEE@Base 1.4.10
 _ZTVN5boost9iostreams13stream_bufferINS0_6detail12mode_adapterINS0_6outputESoEESt11char_traitsIcESaIcES4_EE@Base 1.4.10
 _ZTVN5boost9iostreams14access_controlINS0_6detail12chain_clientINS0_5chainINS0_6outputEcSt11char_traitsIcESaIcEEEEENS0_7public_ENS2_4pub_ISA_EEEE@Base 1.4.10
 _ZTVN5boost9iostreams16filtering_streamINS0_6outputEcSt11char_traitsIcESaIcENS0_7public_EEE@Base 1.4.10
 _ZTVN5boost9iostreams6detail18indirect_streambufINS0_17basic_null_deviceIcNS0_6outputEEESt11char_traitsIcESaIcES4_EE@Base 1.4.10
 _ZTVN5boost9iostreams6detail18indirect_streambufINS0_21basic_gzip_compressorISaIcEEESt11char_traitsIcES4_NS0_6outputEEE@Base 1.4.10
 _ZTVN5boost9iostreams6detail18indirect_streambufINS0_22basic_bzip2_compressorISaIcEEESt11char_traitsIcES4_NS0_6outputEEE@Base 1.4.10
 _ZTVN5boost9iostreams6detail18indirect_streambufINS1_12mode_adapterINS0_6outputESoEESt11char_traitsIcESaIcES4_EE@Base 1.4.10
 _ZTVNSt6thread11_State_implINS_8_InvokerISt5tupleIJM10TracerouteFvvEPS3_EEEEEE@Base 1.4.10
 _ZThn104_N5boost12interprocess18basic_bufferstreamIcSt11char_traitsIcEED0Ev@Base 1.4.10
 _ZThn104_N5boost12interprocess18basic_bufferstreamIcSt11char_traitsIcEED1Ev@Base 1.4.10
 _ZThn16_N5boost10wrapexceptINS_17bad_function_callEED0Ev@Base 1.4.10
 _ZThn16_N5boost10wrapexceptINS_17bad_function_callEED1Ev@Base 1.4.10
 _ZThn16_N5boost10wrapexceptINS_4asio21invalid_service_ownerEED0Ev@Base 1.4.10
 _ZThn16_N5boost10wrapexceptINS_4asio21invalid_service_ownerEED1Ev@Base 1.4.10
 _ZThn16_N5boost10wrapexceptINS_4asio22service_already_existsEED0Ev@Base 1.4.10
 _ZThn16_N5boost10wrapexceptINS_4asio22service_already_existsEED1Ev@Base 1.4.10
 _ZThn16_N5boost10wrapexceptINS_9gregorian16bad_day_of_monthEED0Ev@Base 1.4.10
 _ZThn16_N5boost10wrapexceptINS_9gregorian16bad_day_of_monthEED1Ev@Base 1.4.10
 _ZThn16_N5boost10wrapexceptINS_9gregorian8bad_yearEED0Ev@Base 1.4.10
 _ZThn16_N5boost10wrapexceptINS_9gregorian8bad_yearEED1Ev@Base 1.4.10
 _ZThn16_N5boost10wrapexceptINS_9gregorian9bad_monthEED0Ev@Base 1.4.10
 _ZThn16_N5boost10wrapexceptINS_9gregorian9bad_monthEED1Ev@Base 1.4.10
 _ZThn16_N5boost10wrapexceptISt11logic_errorED0Ev@Base 1.4.10
 _ZThn16_N5boost10wrapexceptISt11logic_errorED1Ev@Base 1.4.10
 _ZThn16_N5boost10wrapexceptISt12length_errorED0Ev@Base 1.4.10
 _ZThn16_N5boost10wrapexceptISt12length_errorED1Ev@Base 1.4.10
 _ZThn16_N5boost10wrapexceptISt13runtime_errorED0Ev@Base 1.4.10
 _ZThn16_N5boost10wrapexceptISt13runtime_errorED1Ev@Base 1.4.10
 _ZThn16_N5boost16exception_detail10clone_implINS0_19error_info_injectorINS_17bad_function_callEEEED0Ev@Base 1.4.10
 _ZThn16_N5boost16exception_detail10clone_implINS0_19error_info_injectorINS_17bad_function_callEEEED1Ev@Base 1.4.10
 _ZThn16_N5boost16exception_detail10clone_implINS0_19error_info_injectorINS_4asio21invalid_service_ownerEEEED0Ev@Base 1.4.10
 _ZThn16_N5boost16exception_detail10clone_implINS0_19error_info_injectorINS_4asio21invalid_service_ownerEEEED1Ev@Base 1.4.10
 _ZThn16_N5boost16exception_detail10clone_implINS0_19error_info_injectorINS_4asio22service_already_existsEEEED0Ev@Base 1.4.10
 _ZThn16_N5boost16exception_detail10clone_implINS0_19error_info_injectorINS_4asio22service_already_existsEEEED1Ev@Base 1.4.10
 _ZThn16_N5boost16exception_detail10clone_implINS0_19error_info_injectorINS_9gregorian16bad_day_of_monthEEEED0Ev@Base 1.4.10
 _ZThn16_N5boost16exception_detail10clone_implINS0_19error_info_injectorINS_9gregorian16bad_day_of_monthEEEED1Ev@Base 1.4.10
 _ZThn16_N5boost16exception_detail10clone_implINS0_19error_info_injectorINS_9gregorian8bad_yearEEEED0Ev@Base 1.4.10
 _ZThn16_N5boost16exception_detail10clone_implINS0_19error_info_injectorINS_9gregorian8bad_yearEEEED1Ev@Base 1.4.10
 _ZThn16_N5boost16exception_detail10clone_implINS0_19error_info_injectorINS_9gregorian9bad_monthEEEED0Ev@Base 1.4.10
 _ZThn16_N5boost16exception_detail10clone_implINS0_19error_info_injectorINS_9gregorian9bad_monthEEEED1Ev@Base 1.4.10
 _ZThn16_N5boost16exception_detail10clone_implINS0_19error_info_injectorISt11logic_errorEEED0Ev@Base 1.4.10
 _ZThn16_N5boost16exception_detail10clone_implINS0_19error_info_injectorISt11logic_errorEEED1Ev@Base 1.4.10
 _ZThn16_N5boost16exception_detail10clone_implINS0_19error_info_injectorISt12length_errorEEED0Ev@Base 1.4.10
 _ZThn16_N5boost16exception_detail10clone_implINS0_19error_info_injectorISt12length_errorEEED1Ev@Base 1.4.10
 _ZThn16_N5boost16exception_detail10clone_implINS0_19error_info_injectorISt13runtime_errorEEED0Ev@Base 1.4.10
 _ZThn16_N5boost16exception_detail10clone_implINS0_19error_info_injectorISt13runtime_errorEEED1Ev@Base 1.4.10
 _ZThn16_N5boost16exception_detail19error_info_injectorINS_17bad_function_callEED0Ev@Base 1.4.10
 _ZThn16_N5boost16exception_detail19error_info_injectorINS_17bad_function_callEED1Ev@Base 1.4.10
 _ZThn16_N5boost16exception_detail19error_info_injectorINS_4asio21invalid_service_ownerEED0Ev@Base 1.4.10
 _ZThn16_N5boost16exception_detail19error_info_injectorINS_4asio21invalid_service_ownerEED1Ev@Base 1.4.10
 _ZThn16_N5boost16exception_detail19error_info_injectorINS_4asio22service_already_existsEED0Ev@Base 1.4.10
 _ZThn16_N5boost16exception_detail19error_info_injectorINS_4asio22service_already_existsEED1Ev@Base 1.4.10
 _ZThn16_N5boost16exception_detail19error_info_injectorINS_9gregorian16bad_day_of_monthEED0Ev@Base 1.4.10
 _ZThn16_N5boost16exception_detail19error_info_injectorINS_9gregorian16bad_day_of_monthEED1Ev@Base 1.4.10
 _ZThn16_N5boost16exception_detail19error_info_injectorINS_9gregorian8bad_yearEED0Ev@Base 1.4.10
 _ZThn16_N5boost16exception_detail19error_info_injectorINS_9gregorian8bad_yearEED1Ev@Base 1.4.10
 _ZThn16_N5boost16exception_detail19error_info_injectorINS_9gregorian9bad_monthEED0Ev@Base 1.4.10
 _ZThn16_N5boost16exception_detail19error_info_injectorINS_9gregorian9bad_monthEED1Ev@Base 1.4.10
 _ZThn16_N5boost16exception_detail19error_info_injectorISt11logic_errorED0Ev@Base 1.4.10
 _ZThn16_N5boost16exception_detail19error_info_injectorISt11logic_errorED1Ev@Base 1.4.10
 _ZThn16_N5boost16exception_detail19error_info_injectorISt12length_errorED0Ev@Base 1.4.10
 _ZThn16_N5boost16exception_detail19error_info_injectorISt12length_errorED1Ev@Base 1.4.10
 _ZThn16_N5boost16exception_detail19error_info_injectorISt13runtime_errorED0Ev@Base 1.4.10
 _ZThn16_N5boost16exception_detail19error_info_injectorISt13runtime_errorED1Ev@Base 1.4.10
 _ZThn16_N5boost9iostreams16filtering_streamINS0_6outputEcSt11char_traitsIcESaIcENS0_7public_EED0Ev@Base 1.4.10
 _ZThn16_N5boost9iostreams16filtering_streamINS0_6outputEcSt11char_traitsIcESaIcENS0_7public_EED1Ev@Base 1.4.10
 _ZThn24_N5boost10wrapexceptINS_2io12too_few_argsEED0Ev@Base 1.4.10
 _ZThn24_N5boost10wrapexceptINS_2io12too_few_argsEED1Ev@Base 1.4.10
 _ZThn24_N5boost10wrapexceptINS_2io13too_many_argsEED0Ev@Base 1.4.10
 _ZThn24_N5boost10wrapexceptINS_2io13too_many_argsEED1Ev@Base 1.4.10
 _ZThn24_N5boost10wrapexceptINS_2io17bad_format_stringEED0Ev@Base 1.4.10
 _ZThn24_N5boost10wrapexceptINS_2io17bad_format_stringEED1Ev@Base 1.4.10
 _ZThn24_N5boost16exception_detail10clone_implINS0_19error_info_injectorINS_2io12too_few_argsEEEED0Ev@Base 1.4.10
 _ZThn24_N5boost16exception_detail10clone_implINS0_19error_info_injectorINS_2io12too_few_argsEEEED1Ev@Base 1.4.10
 _ZThn24_N5boost16exception_detail10clone_implINS0_19error_info_injectorINS_2io13too_many_argsEEEED0Ev@Base 1.4.10
 _ZThn24_N5boost16exception_detail10clone_implINS0_19error_info_injectorINS_2io13too_many_argsEEEED1Ev@Base 1.4.10
 _ZThn24_N5boost16exception_detail10clone_implINS0_19error_info_injectorINS_2io17bad_format_stringEEEED0Ev@Base 1.4.10
 _ZThn24_N5boost16exception_detail10clone_implINS0_19error_info_injectorINS_2io17bad_format_stringEEEED1Ev@Base 1.4.10
 _ZThn24_N5boost16exception_detail19error_info_injectorINS_2io12too_few_argsEED0Ev@Base 1.4.10
 _ZThn24_N5boost16exception_detail19error_info_injectorINS_2io12too_few_argsEED1Ev@Base 1.4.10
 _ZThn24_N5boost16exception_detail19error_info_injectorINS_2io13too_many_argsEED0Ev@Base 1.4.10
 _ZThn24_N5boost16exception_detail19error_info_injectorINS_2io13too_many_argsEED1Ev@Base 1.4.10
 _ZThn24_N5boost16exception_detail19error_info_injectorINS_2io17bad_format_stringEED0Ev@Base 1.4.10
 _ZThn24_N5boost16exception_detail19error_info_injectorINS_2io17bad_format_stringEED1Ev@Base 1.4.10
 _ZThn32_N5boost10wrapexceptINSt8ios_base7failureB5cxx11EED0Ev@Base 1.4.10
 _ZThn32_N5boost10wrapexceptINSt8ios_base7failureB5cxx11EED1Ev@Base 1.4.10
 _ZThn32_N5boost16exception_detail10clone_implINS0_19error_info_injectorINSt8ios_base7failureB5cxx11EEEED0Ev@Base 1.4.10
 _ZThn32_N5boost16exception_detail10clone_implINS0_19error_info_injectorINSt8ios_base7failureB5cxx11EEEED1Ev@Base 1.4.10
 _ZThn32_N5boost16exception_detail19error_info_injectorINSt8ios_base7failureB5cxx11EED0Ev@Base 1.4.10
 _ZThn32_N5boost16exception_detail19error_info_injectorINSt8ios_base7failureB5cxx11EED1Ev@Base 1.4.10
 _ZThn64_N5boost10wrapexceptINS_21thread_resource_errorEED0Ev@Base 1.4.10
 _ZThn64_N5boost10wrapexceptINS_21thread_resource_errorEED1Ev@Base 1.4.10
 _ZThn64_N5boost10wrapexceptINS_6system12system_errorEED0Ev@Base 1.4.10
 _ZThn64_N5boost10wrapexceptINS_6system12system_errorEED1Ev@Base 1.4.10
 _ZThn64_N5boost16exception_detail10clone_implINS0_19error_info_injectorINS_21thread_resource_errorEEEED0Ev@Base 1.4.10
 _ZThn64_N5boost16exception_detail10clone_implINS0_19error_info_injectorINS_21thread_resource_errorEEEED1Ev@Base 1.4.10
 _ZThn64_N5boost16exception_detail10clone_implINS0_19error_info_injectorINS_6system12system_errorEEEED0Ev@Base 1.4.10
 _ZThn64_N5boost16exception_detail10clone_implINS0_19error_info_injectorINS_6system12system_errorEEEED1Ev@Base 1.4.10
 _ZThn64_N5boost16exception_detail19error_info_injectorINS_21thread_resource_errorEED0Ev@Base 1.4.10
 _ZThn64_N5boost16exception_detail19error_info_injectorINS_21thread_resource_errorEED1Ev@Base 1.4.10
 _ZThn64_N5boost16exception_detail19error_info_injectorINS_6system12system_errorEED0Ev@Base 1.4.10
 _ZThn64_N5boost16exception_detail19error_info_injectorINS_6system12system_errorEED1Ev@Base 1.4.10
 _ZThn88_N5boost12interprocess18basic_bufferstreamIcSt11char_traitsIcEED0Ev@Base 1.4.10
 _ZThn88_N5boost12interprocess18basic_bufferstreamIcSt11char_traitsIcEED1Ev@Base 1.4.10
 _ZThn8_N5boost10wrapexceptINS_4asio12bad_executorEED0Ev@Base 1.4.10
 _ZThn8_N5boost10wrapexceptINS_4asio12bad_executorEED1Ev@Base 1.4.10
 _ZThn8_N5boost10wrapexceptINS_4asio2ip16bad_address_castEED0Ev@Base 1.4.10
 _ZThn8_N5boost10wrapexceptINS_4asio2ip16bad_address_castEED1Ev@Base 1.4.10
 _ZThn8_N5boost16exception_detail10clone_implINS0_19error_info_injectorINS_4asio12bad_executorEEEED0Ev@Base 1.4.10
 _ZThn8_N5boost16exception_detail10clone_implINS0_19error_info_injectorINS_4asio12bad_executorEEEED1Ev@Base 1.4.10
 _ZThn8_N5boost16exception_detail10clone_implINS0_19error_info_injectorINS_4asio2ip16bad_address_castEEEED0Ev@Base 1.4.10
 _ZThn8_N5boost16exception_detail10clone_implINS0_19error_info_injectorINS_4asio2ip16bad_address_castEEEED1Ev@Base 1.4.10
 _ZThn8_N5boost16exception_detail19error_info_injectorINS_4asio12bad_executorEED0Ev@Base 1.4.10
 _ZThn8_N5boost16exception_detail19error_info_injectorINS_4asio12bad_executorEED1Ev@Base 1.4.10
 _ZThn8_N5boost16exception_detail19error_info_injectorINS_4asio2ip16bad_address_castEED0Ev@Base 1.4.10
 _ZThn8_N5boost16exception_detail19error_info_injectorINS_4asio2ip16bad_address_castEED1Ev@Base 1.4.10
 _ZThn8_N5boost3log11v2_mt_posix3aux32date_time_format_parser_callbackIcE14on_placeholderERKNS_14iterator_rangeIPKcEE@Base 1.4.10
 _ZThn8_N5boost3log11v2_mt_posix3aux33decomposed_time_formatter_builderINS1_11expressions3aux41date_time_formatter_generator_traits_implINS_10posix_time5ptimeEcE9formatterEcE10on_literalERKNS_14iterator_rangeIPKcEE@Base 1.4.10
 _ZThn8_N5boost3log11v2_mt_posix3aux33decomposed_time_formatter_builderINS1_11expressions3aux41date_time_formatter_generator_traits_implINS_10posix_time5ptimeEcE9formatterEcE10on_minutesEv@Base 1.4.10
 _ZThn8_N5boost3log11v2_mt_posix3aux33decomposed_time_formatter_builderINS1_11expressions3aux41date_time_formatter_generator_traits_implINS_10posix_time5ptimeEcE9formatterEcE10on_secondsEv@Base 1.4.10
 _ZThn8_N5boost3log11v2_mt_posix3aux33decomposed_time_formatter_builderINS1_11expressions3aux41date_time_formatter_generator_traits_implINS_10posix_time5ptimeEcE9formatterEcE11on_hours_12Eb@Base 1.4.10
 _ZThn8_N5boost3log11v2_mt_posix3aux33decomposed_time_formatter_builderINS1_11expressions3aux41date_time_formatter_generator_traits_implINS_10posix_time5ptimeEcE9formatterEcE16on_duration_signEb@Base 1.4.10
 _ZThn8_N5boost3log11v2_mt_posix3aux33decomposed_time_formatter_builderINS1_11expressions3aux41date_time_formatter_generator_traits_implINS_10posix_time5ptimeEcE9formatterEcE16on_iso_time_zoneEv@Base 1.4.10
 _ZThn8_N5boost3log11v2_mt_posix3aux33decomposed_time_formatter_builderINS1_11expressions3aux41date_time_formatter_generator_traits_implINS_10posix_time5ptimeEcE9formatterEcE21on_fractional_secondsEv@Base 1.4.10
 _ZThn8_N5boost3log11v2_mt_posix3aux33decomposed_time_formatter_builderINS1_11expressions3aux41date_time_formatter_generator_traits_implINS_10posix_time5ptimeEcE9formatterEcE25on_extended_iso_time_zoneEv@Base 1.4.10
 _ZThn8_N5boost3log11v2_mt_posix3aux33decomposed_time_formatter_builderINS1_11expressions3aux41date_time_formatter_generator_traits_implINS_10posix_time5ptimeEcE9formatterEcE8on_am_pmEb@Base 1.4.10
 _ZThn8_N5boost3log11v2_mt_posix3aux33decomposed_time_formatter_builderINS1_11expressions3aux41date_time_formatter_generator_traits_implINS_10posix_time5ptimeEcE9formatterEcE8on_hoursEb@Base 1.4.10
 _ZThn8_N5boost3log11v2_mt_posix3aux33decomposed_time_formatter_builderINS1_11expressions3aux41date_time_formatter_generator_traits_implINS_10posix_time5ptimeEcE9formatterEcED0Ev@Base 1.4.10
 _ZThn8_N5boost3log11v2_mt_posix3aux33decomposed_time_formatter_builderINS1_11expressions3aux41date_time_formatter_generator_traits_implINS_10posix_time5ptimeEcE9formatterEcED1Ev@Base 1.4.10
 _ZTv0_n24_N5boost12interprocess18basic_bufferstreamIcSt11char_traitsIcEED0Ev@Base 1.4.10
 _ZTv0_n24_N5boost12interprocess18basic_bufferstreamIcSt11char_traitsIcEED1Ev@Base 1.4.10
 _ZTv0_n24_N5boost2io22basic_oaltstringstreamIcSt11char_traitsIcESaIcEED0Ev@Base 1.4.10
 _ZTv0_n24_N5boost2io22basic_oaltstringstreamIcSt11char_traitsIcESaIcEED1Ev@Base 1.4.10
 _ZTv0_n24_N5boost9iostreams16filtering_streamINS0_6outputEcSt11char_traitsIcESaIcENS0_7public_EED0Ev@Base 1.4.10
 _ZTv0_n24_N5boost9iostreams16filtering_streamINS0_6outputEcSt11char_traitsIcESaIcENS0_7public_EED1Ev@Base 1.4.10
 _ZTv0_n24_NK5boost16exception_detail10clone_implINS0_19error_info_injectorINS_17bad_function_callEEEE5cloneEv@Base 1.4.10
 _ZTv0_n24_NK5boost16exception_detail10clone_implINS0_19error_info_injectorINS_21thread_resource_errorEEEE5cloneEv@Base 1.4.10
 _ZTv0_n24_NK5boost16exception_detail10clone_implINS0_19error_info_injectorINS_2io12too_few_argsEEEE5cloneEv@Base 1.4.10
 _ZTv0_n24_NK5boost16exception_detail10clone_implINS0_19error_info_injectorINS_2io13too_many_argsEEEE5cloneEv@Base 1.4.10
 _ZTv0_n24_NK5boost16exception_detail10clone_implINS0_19error_info_injectorINS_2io17bad_format_stringEEEE5cloneEv@Base 1.4.10
 _ZTv0_n24_NK5boost16exception_detail10clone_implINS0_19error_info_injectorINS_4asio12bad_executorEEEE5cloneEv@Base 1.4.10
 _ZTv0_n24_NK5boost16exception_detail10clone_implINS0_19error_info_injectorINS_4asio21invalid_service_ownerEEEE5cloneEv@Base 1.4.10
 _ZTv0_n24_NK5boost16exception_detail10clone_implINS0_19error_info_injectorINS_4asio22service_already_existsEEEE5cloneEv@Base 1.4.10
 _ZTv0_n24_NK5boost16exception_detail10clone_implINS0_19error_info_injectorINS_4asio2ip16bad_address_castEEEE5cloneEv@Base 1.4.10
 _ZTv0_n24_NK5boost16exception_detail10clone_implINS0_19error_info_injectorINS_6system12system_errorEEEE5cloneEv@Base 1.4.10
 _ZTv0_n24_NK5boost16exception_detail10clone_implINS0_19error_info_injectorINS_9gregorian16bad_day_of_monthEEEE5cloneEv@Base 1.4.10
 _ZTv0_n24_NK5boost16exception_detail10clone_implINS0_19error_info_injectorINS_9gregorian8bad_yearEEEE5cloneEv@Base 1.4.10
 _ZTv0_n24_NK5boost16exception_detail10clone_implINS0_19error_info_injectorINS_9gregorian9bad_monthEEEE5cloneEv@Base 1.4.10
 _ZTv0_n24_NK5boost16exception_detail10clone_implINS0_19error_info_injectorINSt8ios_base7failureB5cxx11EEEE5cloneEv@Base 1.4.10
 _ZTv0_n24_NK5boost16exception_detail10clone_implINS0_19error_info_injectorISt11logic_errorEEE5cloneEv@Base 1.4.10
 _ZTv0_n24_NK5boost16exception_detail10clone_implINS0_19error_info_injectorISt12length_errorEEE5cloneEv@Base 1.4.10
 _ZTv0_n24_NK5boost16exception_detail10clone_implINS0_19error_info_injectorISt13runtime_errorEEE5cloneEv@Base 1.4.10
 _ZTv0_n32_NK5boost16exception_detail10clone_implINS0_19error_info_injectorINS_17bad_function_callEEEE7rethrowEv@Base 1.4.10
 _ZTv0_n32_NK5boost16exception_detail10clone_implINS0_19error_info_injectorINS_21thread_resource_errorEEEE7rethrowEv@Base 1.4.10
 _ZTv0_n32_NK5boost16exception_detail10clone_implINS0_19error_info_injectorINS_2io12too_few_argsEEEE7rethrowEv@Base 1.4.10
 _ZTv0_n32_NK5boost16exception_detail10clone_implINS0_19error_info_injectorINS_2io13too_many_argsEEEE7rethrowEv@Base 1.4.10
 _ZTv0_n32_NK5boost16exception_detail10clone_implINS0_19error_info_injectorINS_2io17bad_format_stringEEEE7rethrowEv@Base 1.4.10
 _ZTv0_n32_NK5boost16exception_detail10clone_implINS0_19error_info_injectorINS_4asio12bad_executorEEEE7rethrowEv@Base 1.4.10
 _ZTv0_n32_NK5boost16exception_detail10clone_implINS0_19error_info_injectorINS_4asio21invalid_service_ownerEEEE7rethrowEv@Base 1.4.10
 _ZTv0_n32_NK5boost16exception_detail10clone_implINS0_19error_info_injectorINS_4asio22service_already_existsEEEE7rethrowEv@Base 1.4.10
 _ZTv0_n32_NK5boost16exception_detail10clone_implINS0_19error_info_injectorINS_4asio2ip16bad_address_castEEEE7rethrowEv@Base 1.4.10
 _ZTv0_n32_NK5boost16exception_detail10clone_implINS0_19error_info_injectorINS_6system12system_errorEEEE7rethrowEv@Base 1.4.10
 _ZTv0_n32_NK5boost16exception_detail10clone_implINS0_19error_info_injectorINS_9gregorian16bad_day_of_monthEEEE7rethrowEv@Base 1.4.10
 _ZTv0_n32_NK5boost16exception_detail10clone_implINS0_19error_info_injectorINS_9gregorian8bad_yearEEEE7rethrowEv@Base 1.4.10
 _ZTv0_n32_NK5boost16exception_detail10clone_implINS0_19error_info_injectorINS_9gregorian9bad_monthEEEE7rethrowEv@Base 1.4.10
 _ZTv0_n32_NK5boost16exception_detail10clone_implINS0_19error_info_injectorINSt8ios_base7failureB5cxx11EEEE7rethrowEv@Base 1.4.10
 _ZTv0_n32_NK5boost16exception_detail10clone_implINS0_19error_info_injectorISt11logic_errorEEE7rethrowEv@Base 1.4.10
 _ZTv0_n32_NK5boost16exception_detail10clone_implINS0_19error_info_injectorISt12length_errorEEE7rethrowEv@Base 1.4.10
 _ZTv0_n32_NK5boost16exception_detail10clone_implINS0_19error_info_injectorISt13runtime_errorEEE7rethrowEv@Base 1.4.10
 _ZTv0_n40_N5boost10wrapexceptINS_17bad_function_callEED0Ev@Base 1.4.10
 _ZTv0_n40_N5boost10wrapexceptINS_17bad_function_callEED1Ev@Base 1.4.10
 _ZTv0_n40_N5boost10wrapexceptINS_21thread_resource_errorEED0Ev@Base 1.4.10
 _ZTv0_n40_N5boost10wrapexceptINS_21thread_resource_errorEED1Ev@Base 1.4.10
 _ZTv0_n40_N5boost10wrapexceptINS_2io12too_few_argsEED0Ev@Base 1.4.10
 _ZTv0_n40_N5boost10wrapexceptINS_2io12too_few_argsEED1Ev@Base 1.4.10
 _ZTv0_n40_N5boost10wrapexceptINS_2io13too_many_argsEED0Ev@Base 1.4.10
 _ZTv0_n40_N5boost10wrapexceptINS_2io13too_many_argsEED1Ev@Base 1.4.10
 _ZTv0_n40_N5boost10wrapexceptINS_2io17bad_format_stringEED0Ev@Base 1.4.10
 _ZTv0_n40_N5boost10wrapexceptINS_2io17bad_format_stringEED1Ev@Base 1.4.10
 _ZTv0_n40_N5boost10wrapexceptINS_4asio12bad_executorEED0Ev@Base 1.4.10
 _ZTv0_n40_N5boost10wrapexceptINS_4asio12bad_executorEED1Ev@Base 1.4.10
 _ZTv0_n40_N5boost10wrapexceptINS_4asio21invalid_service_ownerEED0Ev@Base 1.4.10
 _ZTv0_n40_N5boost10wrapexceptINS_4asio21invalid_service_ownerEED1Ev@Base 1.4.10
 _ZTv0_n40_N5boost10wrapexceptINS_4asio22service_already_existsEED0Ev@Base 1.4.10
 _ZTv0_n40_N5boost10wrapexceptINS_4asio22service_already_existsEED1Ev@Base 1.4.10
 _ZTv0_n40_N5boost10wrapexceptINS_4asio2ip16bad_address_castEED0Ev@Base 1.4.10
 _ZTv0_n40_N5boost10wrapexceptINS_4asio2ip16bad_address_castEED1Ev@Base 1.4.10
 _ZTv0_n40_N5boost10wrapexceptINS_6system12system_errorEED0Ev@Base 1.4.10
 _ZTv0_n40_N5boost10wrapexceptINS_6system12system_errorEED1Ev@Base 1.4.10
 _ZTv0_n40_N5boost10wrapexceptINS_9gregorian16bad_day_of_monthEED0Ev@Base 1.4.10
 _ZTv0_n40_N5boost10wrapexceptINS_9gregorian16bad_day_of_monthEED1Ev@Base 1.4.10
 _ZTv0_n40_N5boost10wrapexceptINS_9gregorian8bad_yearEED0Ev@Base 1.4.10
 _ZTv0_n40_N5boost10wrapexceptINS_9gregorian8bad_yearEED1Ev@Base 1.4.10
 _ZTv0_n40_N5boost10wrapexceptINS_9gregorian9bad_monthEED0Ev@Base 1.4.10
 _ZTv0_n40_N5boost10wrapexceptINS_9gregorian9bad_monthEED1Ev@Base 1.4.10
 _ZTv0_n40_N5boost10wrapexceptINSt8ios_base7failureB5cxx11EED0Ev@Base 1.4.10
 _ZTv0_n40_N5boost10wrapexceptINSt8ios_base7failureB5cxx11EED1Ev@Base 1.4.10
 _ZTv0_n40_N5boost10wrapexceptISt11logic_errorED0Ev@Base 1.4.10
 _ZTv0_n40_N5boost10wrapexceptISt11logic_errorED1Ev@Base 1.4.10
 _ZTv0_n40_N5boost10wrapexceptISt12length_errorED0Ev@Base 1.4.10
 _ZTv0_n40_N5boost10wrapexceptISt12length_errorED1Ev@Base 1.4.10
 _ZTv0_n40_N5boost10wrapexceptISt13runtime_errorED0Ev@Base 1.4.10
 _ZTv0_n40_N5boost10wrapexceptISt13runtime_errorED1Ev@Base 1.4.10
 _ZTv0_n40_N5boost16exception_detail10clone_implINS0_19error_info_injectorINS_17bad_function_callEEEED0Ev@Base 1.4.10
 _ZTv0_n40_N5boost16exception_detail10clone_implINS0_19error_info_injectorINS_17bad_function_callEEEED1Ev@Base 1.4.10
 _ZTv0_n40_N5boost16exception_detail10clone_implINS0_19error_info_injectorINS_21thread_resource_errorEEEED0Ev@Base 1.4.10
 _ZTv0_n40_N5boost16exception_detail10clone_implINS0_19error_info_injectorINS_21thread_resource_errorEEEED1Ev@Base 1.4.10
 _ZTv0_n40_N5boost16exception_detail10clone_implINS0_19error_info_injectorINS_2io12too_few_argsEEEED0Ev@Base 1.4.10
 _ZTv0_n40_N5boost16exception_detail10clone_implINS0_19error_info_injectorINS_2io12too_few_argsEEEED1Ev@Base 1.4.10
 _ZTv0_n40_N5boost16exception_detail10clone_implINS0_19error_info_injectorINS_2io13too_many_argsEEEED0Ev@Base 1.4.10
 _ZTv0_n40_N5boost16exception_detail10clone_implINS0_19error_info_injectorINS_2io13too_many_argsEEEED1Ev@Base 1.4.10
 _ZTv0_n40_N5boost16exception_detail10clone_implINS0_19error_info_injectorINS_2io17bad_format_stringEEEED0Ev@Base 1.4.10
 _ZTv0_n40_N5boost16exception_detail10clone_implINS0_19error_info_injectorINS_2io17bad_format_stringEEEED1Ev@Base 1.4.10
 _ZTv0_n40_N5boost16exception_detail10clone_implINS0_19error_info_injectorINS_4asio12bad_executorEEEED0Ev@Base 1.4.10
 _ZTv0_n40_N5boost16exception_detail10clone_implINS0_19error_info_injectorINS_4asio12bad_executorEEEED1Ev@Base 1.4.10
 _ZTv0_n40_N5boost16exception_detail10clone_implINS0_19error_info_injectorINS_4asio21invalid_service_ownerEEEED0Ev@Base 1.4.10
 _ZTv0_n40_N5boost16exception_detail10clone_implINS0_19error_info_injectorINS_4asio21invalid_service_ownerEEEED1Ev@Base 1.4.10
 _ZTv0_n40_N5boost16exception_detail10clone_implINS0_19error_info_injectorINS_4asio22service_already_existsEEEED0Ev@Base 1.4.10
 _ZTv0_n40_N5boost16exception_detail10clone_implINS0_19error_info_injectorINS_4asio22service_already_existsEEEED1Ev@Base 1.4.10
 _ZTv0_n40_N5boost16exception_detail10clone_implINS0_19error_info_injectorINS_4asio2ip16bad_address_castEEEED0Ev@Base 1.4.10
 _ZTv0_n40_N5boost16exception_detail10clone_implINS0_19error_info_injectorINS_4asio2ip16bad_address_castEEEED1Ev@Base 1.4.10
 _ZTv0_n40_N5boost16exception_detail10clone_implINS0_19error_info_injectorINS_6system12system_errorEEEED0Ev@Base 1.4.10
 _ZTv0_n40_N5boost16exception_detail10clone_implINS0_19error_info_injectorINS_6system12system_errorEEEED1Ev@Base 1.4.10
 _ZTv0_n40_N5boost16exception_detail10clone_implINS0_19error_info_injectorINS_9gregorian16bad_day_of_monthEEEED0Ev@Base 1.4.10
 _ZTv0_n40_N5boost16exception_detail10clone_implINS0_19error_info_injectorINS_9gregorian16bad_day_of_monthEEEED1Ev@Base 1.4.10
 _ZTv0_n40_N5boost16exception_detail10clone_implINS0_19error_info_injectorINS_9gregorian8bad_yearEEEED0Ev@Base 1.4.10
 _ZTv0_n40_N5boost16exception_detail10clone_implINS0_19error_info_injectorINS_9gregorian8bad_yearEEEED1Ev@Base 1.4.10
 _ZTv0_n40_N5boost16exception_detail10clone_implINS0_19error_info_injectorINS_9gregorian9bad_monthEEEED0Ev@Base 1.4.10
 _ZTv0_n40_N5boost16exception_detail10clone_implINS0_19error_info_injectorINS_9gregorian9bad_monthEEEED1Ev@Base 1.4.10
 _ZTv0_n40_N5boost16exception_detail10clone_implINS0_19error_info_injectorINSt8ios_base7failureB5cxx11EEEED0Ev@Base 1.4.10
 _ZTv0_n40_N5boost16exception_detail10clone_implINS0_19error_info_injectorINSt8ios_base7failureB5cxx11EEEED1Ev@Base 1.4.10
 _ZTv0_n40_N5boost16exception_detail10clone_implINS0_19error_info_injectorISt11logic_errorEEED0Ev@Base 1.4.10
 _ZTv0_n40_N5boost16exception_detail10clone_implINS0_19error_info_injectorISt11logic_errorEEED1Ev@Base 1.4.10
 _ZTv0_n40_N5boost16exception_detail10clone_implINS0_19error_info_injectorISt12length_errorEEED0Ev@Base 1.4.10
 _ZTv0_n40_N5boost16exception_detail10clone_implINS0_19error_info_injectorISt12length_errorEEED1Ev@Base 1.4.10
 _ZTv0_n40_N5boost16exception_detail10clone_implINS0_19error_info_injectorISt13runtime_errorEEED0Ev@Base 1.4.10
 _ZTv0_n40_N5boost16exception_detail10clone_implINS0_19error_info_injectorISt13runtime_errorEEED1Ev@Base 1.4.10
 _ZZN5boost3log11v2_mt_posix3aux14lazy_singletonINS1_7sources3aux16logger_singletonI8MyLoggerEENS_10shared_ptrINS5_13logger_holderINS4_18severity_logger_mtINS1_7trivial14severity_levelEEEEEEEE12get_instanceEvE8instance@Base 1.4.10
 _ZZN5boost3log11v2_mt_posix3aux14lazy_singletonINS1_7sources3aux16logger_singletonI8MyLoggerEENS_10shared_ptrINS5_13logger_holderINS4_18severity_logger_mtINS1_7trivial14severity_levelEEEEEEEE3getEvE29_boost_log_once_block_flag_43@Base 1.4.10
 _ZZN5boost3log11v2_mt_posix3aux19date_time_formatterINS2_23decomposed_time_wrapperINS_10posix_time5ptimeEEEcE12format_am_pmILb0EEEvRNS8_7contextEE2am@Base 1.4.10
 _ZZN5boost3log11v2_mt_posix3aux19date_time_formatterINS2_23decomposed_time_wrapperINS_10posix_time5ptimeEEEcE12format_am_pmILb0EEEvRNS8_7contextEE2pm@Base 1.4.10
 _ZZN5boost3log11v2_mt_posix3aux19date_time_formatterINS2_23decomposed_time_wrapperINS_10posix_time5ptimeEEEcE12format_am_pmILb1EEEvRNS8_7contextEE2am@Base 1.4.10
 _ZZN5boost3log11v2_mt_posix3aux19date_time_formatterINS2_23decomposed_time_wrapperINS_10posix_time5ptimeEEEcE12format_am_pmILb1EEEvRNS8_7contextEE2pm@Base 1.4.10
 _ZZN5boost3log11v2_mt_posix3aux24type_sequence_dispatcherINS_3mpl7vector2INSt7__cxx1112basic_stringIcSt11char_traitsIcESaIcEEENS7_IwS8_IwESaIwEEEEEE19get_dispatching_mapINS1_9binder1stINS1_10output_funERNS1_11expressions3aux10stream_refINS1_24basic_formatting_ostreamIcS9_SA_EEEEEEEERKNS_5arrayISt4pairINS_9typeindex14stl_type_indexEPvELm2EEEvE30_boost_log_once_block_flag_182@Base 1.4.10
 _ZZN5boost3log11v2_mt_posix3aux24type_sequence_dispatcherINS_3mpl7vector2INSt7__cxx1112basic_stringIcSt11char_traitsIcESaIcEEENS7_IwS8_IwESaIwEEEEEE19get_dispatching_mapINS1_9binder1stINS1_10output_funERNS1_11expressions3aux10stream_refINS1_24basic_formatting_ostreamIcS9_SA_EEEEEEEERKNS_5arrayISt4pairINS_9typeindex14stl_type_indexEPvELm2EEEvE8instance@Base 1.4.10
 _ZZN5boost3log11v2_mt_posix3aux24type_sequence_dispatcherINS_3mpl7vector2INSt7__cxx1112basic_stringIcSt11char_traitsIcESaIcEEENS7_IwS8_IwESaIwEEEEEE19get_dispatching_mapINS1_9binder1stINS1_10output_funERNS1_11expressions3aux10stream_refINS1_24basic_formatting_ostreamIcS9_SA_EEEEEEEERKNS_5arrayISt4pairINS_9typeindex14stl_type_indexEPvELm2EEEvE9pinstance@Base 1.4.10
 _ZZN5boost4asio6detail13epoll_reactor16descriptor_state10perform_ioEjE4flag@Base 1.4.10
 _ZZN5boost6system6detail15to_std_categoryERKNS0_14error_categoryEE15system_instance@Base 1.4.10
 _ZZN5boost6system6detail15to_std_categoryERKNS0_14error_categoryEE16generic_instance@Base 1.4.10
 _ZZN5boost6system6detail15to_std_categoryERKNS0_14error_categoryEE4map_@Base 1.4.10
 _ZZN5boost6system6detail15to_std_categoryERKNS0_14error_categoryEE7map_mx_@Base 1.4.10
 _ZZN5boost6system6detail16is_generic_valueEiE3gen@Base 1.4.10
 _ZZN5boost9function2INS_14iterator_rangeIN9__gnu_cxx17__normal_iteratorIPKcNSt7__cxx1112basic_stringIcSt11char_traitsIcESaIcEEEEEEESC_SC_E9assign_toINS_9algorithm6detail13token_finderFINSH_10is_any_ofFIcEEEEEEvT_E13stored_vtable@Base 1.4.10
 _ZZNK5boost3log11v2_mt_posix3aux15decomposed_time8year_dayEvE16first_day_offset@Base 1.4.10
 _ZeqRK15DestinationInfoS1_@Base 1.4.10
 _ZlsRSoRK11ResultEntry@Base 1.4.10
 _ZlsRSoRK15DestinationInfo@Base 1.4.10
 _ZltRK15DestinationInfoS1_@Base 1.4.10
 _ZrsRSiR10IPv4Header@Base 1.4.10
 boost_asio_detail_posix_thread_function@Base 1.4.10
